	.section	__TEXT,__text,regular,pure_instructions
	.build_version macos, 11, 0
	.p2align	2
__ZN3std10sys_common9backtrace28__rust_begin_short_backtrace17h5f27f32013af3678E:
Lfunc_begin0:
	.file	1 "/rustc/b10cfcd65fd7f7b1ab9beb34798b2108de003452/library/std/src/sys_common" "backtrace.rs"
	.loc	1 151 0
	.cfi_startproc
	stp	x29, x30, [sp, #-16]!
	.cfi_def_cfa_offset 16
	mov	x29, sp
	.cfi_def_cfa w29, 16
	.cfi_offset w30, -8
	.cfi_offset w29, -16
Ltmp27:
	.file	2 "/rustc/b10cfcd65fd7f7b1ab9beb34798b2108de003452/library/core/src/ops" "function.rs"
	.loc	2 250 5 prologue_end
	blr	x0
Ltmp28:
	.file	3 "/rustc/b10cfcd65fd7f7b1ab9beb34798b2108de003452/library/core/src" "hint.rs"
	.loc	3 286 5
	; InlineAsm Start
	; InlineAsm End
Ltmp29:
	.cfi_def_cfa wsp, 16
	.loc	1 161 2 epilogue_begin
	ldp	x29, x30, [sp], #16
	.cfi_def_cfa_offset 0
	.cfi_restore w30
	.cfi_restore w29
	ret
Ltmp30:
Lfunc_end0:
	.cfi_endproc

	.private_extern	__ZN3std2rt10lang_start17h8b3a998ca51e4c48E
	.globl	__ZN3std2rt10lang_start17h8b3a998ca51e4c48E
	.p2align	2
__ZN3std2rt10lang_start17h8b3a998ca51e4c48E:
Lfunc_begin1:
	.file	4 "/rustc/b10cfcd65fd7f7b1ab9beb34798b2108de003452/library/std/src" "rt.rs"
	.loc	4 160 0
	.cfi_startproc
	sub	sp, sp, #32
	.cfi_def_cfa_offset 32
	stp	x29, x30, [sp, #16]
	add	x29, sp, #16
	.cfi_def_cfa w29, 16
	.cfi_offset w30, -8
	.cfi_offset w29, -16
	mov	x4, x3
Ltmp31:
	mov	x3, x2
Ltmp32:
	mov	x2, x1
Ltmp33:
	.loc	4 167 10 prologue_end
	str	x0, [sp, #8]
	.loc	4 166 17
Lloh0:
	adrp	x1, l___unnamed_1@PAGE
Lloh1:
	add	x1, x1, l___unnamed_1@PAGEOFF
	add	x0, sp, #8
Ltmp34:
	bl	__ZN3std2rt19lang_start_internal17hcbff2ae5803efda8E
Ltmp35:
	.cfi_def_cfa wsp, 32
	.loc	4 173 2 epilogue_begin
	ldp	x29, x30, [sp, #16]
	add	sp, sp, #32
	.cfi_def_cfa_offset 0
	.cfi_restore w30
	.cfi_restore w29
	ret
Ltmp36:
	.loh AdrpAdd	Lloh0, Lloh1
Lfunc_end1:
	.cfi_endproc

	.p2align	2
__ZN3std2rt10lang_start28_$u7b$$u7b$closure$u7d$$u7d$17h6bd09f8adeabe4ddE:
Lfunc_begin2:
	.loc	4 167 0
	.cfi_startproc
	stp	x29, x30, [sp, #-16]!
	.cfi_def_cfa_offset 16
	mov	x29, sp
	.cfi_def_cfa w29, 16
	.cfi_offset w30, -8
	.cfi_offset w29, -16
Ltmp37:
	.loc	4 167 77 prologue_end
	ldr	x0, [x0]
Ltmp38:
	.loc	4 167 18 is_stmt 0
	bl	__ZN3std10sys_common9backtrace28__rust_begin_short_backtrace17h5f27f32013af3678E
	.loc	4 167 100
	mov	w0, #0
	.cfi_def_cfa wsp, 16
	.loc	4 167 100 epilogue_begin
	ldp	x29, x30, [sp], #16
	.cfi_def_cfa_offset 0
	.cfi_restore w30
	.cfi_restore w29
	ret
Ltmp39:
Lfunc_end2:
	.cfi_endproc

	.p2align	2
__ZN42_$LT$$RF$T$u20$as$u20$core..fmt..Debug$GT$3fmt17hbae5de0a784df959E:
Lfunc_begin3:
	.file	5 "/rustc/b10cfcd65fd7f7b1ab9beb34798b2108de003452/library/core/src/fmt" "mod.rs"
	.loc	5 2294 0 is_stmt 1
	.cfi_startproc
	mov	x2, x1
Ltmp40:
	.loc	5 2294 71 prologue_end
	ldr	x8, [x0]
	.loc	5 2294 62 is_stmt 0
	ldp	x0, x1, [x8]
Ltmp41:
	.loc	5 2294 62
	b	__ZN40_$LT$str$u20$as$u20$core..fmt..Debug$GT$3fmt17h05e36c1793c68502E
Ltmp42:
Lfunc_end3:
	.cfi_endproc

	.p2align	2
__ZN4core3ops8function6FnOnce40call_once$u7b$$u7b$vtable.shim$u7d$$u7d$17hd4c7658d91d773d6E:
Lfunc_begin4:
	.loc	2 250 0 is_stmt 1
	.cfi_startproc
	stp	x29, x30, [sp, #-16]!
	.cfi_def_cfa_offset 16
	mov	x29, sp
	.cfi_def_cfa w29, 16
	.cfi_offset w30, -8
	.cfi_offset w29, -16
Ltmp43:
	.loc	2 250 5 prologue_end
	ldr	x0, [x0]
Ltmp44:
	.loc	4 167 18
	bl	__ZN3std10sys_common9backtrace28__rust_begin_short_backtrace17h5f27f32013af3678E
Ltmp45:
	.loc	2 250 5
	mov	w0, #0
	.cfi_def_cfa wsp, 16
	.loc	2 250 5 epilogue_begin is_stmt 0
	ldp	x29, x30, [sp], #16
	.cfi_def_cfa_offset 0
	.cfi_restore w30
	.cfi_restore w29
	ret
Ltmp46:
Lfunc_end4:
	.cfi_endproc

	.p2align	2
__ZN4core3ptr65drop_in_place$LT$alloc..vec..Vec$LT$alloc..string..String$GT$$GT$17h8c7550fe98ea3607E:
Lfunc_begin5:
	.file	6 "/rustc/b10cfcd65fd7f7b1ab9beb34798b2108de003452/library/core/src/ptr" "mod.rs"
	.loc	6 498 0 is_stmt 1
	.cfi_startproc
	stp	x22, x21, [sp, #-48]!
	.cfi_def_cfa_offset 48
	stp	x20, x19, [sp, #16]
	stp	x29, x30, [sp, #32]
	add	x29, sp, #32
	.cfi_def_cfa w29, 16
	.cfi_offset w30, -8
	.cfi_offset w29, -16
	.cfi_offset w19, -24
	.cfi_offset w20, -32
	.cfi_offset w21, -40
	.cfi_offset w22, -48
	.cfi_remember_state
	mov	x20, x0
Ltmp47:
	.loc	6 498 1 prologue_end
	ldr	x19, [x0]
	ldr	x21, [x0, #16]
Ltmp48:
	.loc	6 498 1 is_stmt 0
	cbz	x21, LBB5_5
Ltmp49:
	.file	7 "/rustc/b10cfcd65fd7f7b1ab9beb34798b2108de003452/library/alloc/src" "raw_vec.rs"
	.loc	7 240 25 is_stmt 1
	add	x22, x19, #8
	b	LBB5_3
Ltmp50:
LBB5_2:
	.loc	6 498 1
	add	x22, x22, #24
	subs	x21, x21, #1
	b.eq	LBB5_5
Ltmp51:
LBB5_3:
	ldr	x1, [x22]
Ltmp52:
	.loc	7 240 25
	cbz	x1, LBB5_2
Ltmp53:
	.loc	6 498 1
	ldur	x0, [x22, #-8]
Ltmp54:
	.file	8 "/rustc/b10cfcd65fd7f7b1ab9beb34798b2108de003452/library/alloc/src" "alloc.rs"
	.loc	8 117 14
	mov	w2, #1
	bl	___rust_dealloc
Ltmp55:
	.loc	8 0 14 is_stmt 0
	b	LBB5_2
Ltmp56:
LBB5_5:
	.loc	6 498 1 is_stmt 1
	ldr	x8, [x20, #8]
Ltmp57:
	.loc	7 240 25
	cbz	x8, LBB5_7
Ltmp58:
	.file	9 "/rustc/b10cfcd65fd7f7b1ab9beb34798b2108de003452/library/core/src/num" "mod.rs"
	.loc	9 1269 5
	add	x8, x8, x8, lsl #1
Ltmp59:
	lsl	x1, x8, #3
Ltmp60:
	.loc	8 117 14
	mov	x0, x19
	mov	w2, #8
	.cfi_def_cfa wsp, 48
	.loc	8 117 14 epilogue_begin is_stmt 0
	ldp	x29, x30, [sp, #32]
	ldp	x20, x19, [sp, #16]
Ltmp61:
	ldp	x22, x21, [sp], #48
	.cfi_def_cfa_offset 0
	.cfi_restore w30
	.cfi_restore w29
	.cfi_restore w19
	.cfi_restore w20
	.cfi_restore w21
	.cfi_restore w22
	b	___rust_dealloc
Ltmp62:
LBB5_7:
	.cfi_restore_state
	.cfi_def_cfa wsp, 48
	.loc	6 498 1 epilogue_begin is_stmt 1
	ldp	x29, x30, [sp, #32]
	ldp	x20, x19, [sp, #16]
Ltmp63:
	ldp	x22, x21, [sp], #48
	.cfi_def_cfa_offset 0
	.cfi_restore w30
	.cfi_restore w29
	.cfi_restore w19
	.cfi_restore w20
	.cfi_restore w21
	.cfi_restore w22
	ret
Ltmp64:
Lfunc_end5:
	.cfi_endproc
	.file	10 "/rustc/b10cfcd65fd7f7b1ab9beb34798b2108de003452/library/alloc/src/vec" "mod.rs"
	.file	11 "/rustc/b10cfcd65fd7f7b1ab9beb34798b2108de003452/library/core/src/num" "uint_macros.rs"

	.p2align	2
__ZN4core3ptr85drop_in_place$LT$std..rt..lang_start$LT$$LP$$RP$$GT$..$u7b$$u7b$closure$u7d$$u7d$$GT$17hea9882ec5102adcfE:
Lfunc_begin6:
	.cfi_startproc
	.loc	6 498 1 prologue_end
	ret
Ltmp65:
Lfunc_end6:
	.cfi_endproc

	.p2align	2
__ZN5alloc7raw_vec11finish_grow17h9428d2446860d993E:
Lfunc_begin7:
	.loc	7 474 0
	.cfi_startproc
	stp	x22, x21, [sp, #-48]!
	.cfi_def_cfa_offset 48
	stp	x20, x19, [sp, #16]
	stp	x29, x30, [sp, #32]
	add	x29, sp, #32
	.cfi_def_cfa w29, 16
	.cfi_offset w30, -8
	.cfi_offset w29, -16
	.cfi_offset w19, -24
	.cfi_offset w20, -32
	.cfi_offset w21, -40
	.cfi_offset w22, -48
	.cfi_remember_state
	mov	x19, x2
Ltmp66:
	mov	x20, x0
Ltmp67:
	.file	12 "/rustc/b10cfcd65fd7f7b1ab9beb34798b2108de003452/library/core/src" "result.rs"
	.loc	12 827 9 prologue_end
	cbz	x1, LBB7_8
Ltmp68:
	.loc	12 0 9 is_stmt 0
	mov	x21, x1
Ltmp69:
	.loc	7 487 25 is_stmt 1
	ldr	x8, [x3, #8]
	cbz	x8, LBB7_5
Ltmp70:
	.loc	7 487 36 is_stmt 0
	ldr	x1, [x3, #16]
Ltmp71:
	.loc	8 202 9 is_stmt 1
	cbz	x1, LBB7_5
Ltmp72:
	.loc	7 0 0 is_stmt 0
	ldr	x0, [x3]
Ltmp73:
	.loc	8 136 14 is_stmt 1
	mov	x2, x21
	mov	x3, x19
Ltmp74:
	bl	___rust_realloc
Ltmp75:
	.loc	12 827 9
	cbnz	x0, LBB7_7
Ltmp76:
LBB7_4:
	.loc	12 829 23
	str	x21, [x20, #8]
	b	LBB7_9
Ltmp77:
LBB7_5:
	.loc	7 0 0 is_stmt 0
	cbz	x19, LBB7_11
Ltmp78:
Lloh2:
	adrp	x8, ___rust_no_alloc_shim_is_unstable@GOTPAGE
Lloh3:
	ldr	x8, [x8, ___rust_no_alloc_shim_is_unstable@GOTPAGEOFF]
	ldrb	wzr, [x8]
	mov	x0, x19
	mov	x1, x21
	bl	___rust_alloc
Ltmp79:
	.loc	12 827 9 is_stmt 1
	cbz	x0, LBB7_4
Ltmp80:
LBB7_7:
	.loc	12 0 9 is_stmt 0
	mov	x8, #0
Ltmp81:
	.loc	12 828 22 is_stmt 1
	str	x0, [x20, #8]
	b	LBB7_10
Ltmp82:
LBB7_8:
	.loc	12 1959 23
	str	xzr, [x20, #8]
Ltmp83:
LBB7_9:
	.loc	12 0 23 is_stmt 0
	mov	w8, #1
Ltmp84:
LBB7_10:
	str	x19, [x20, #16]
	str	x8, [x20]
	.cfi_def_cfa wsp, 48
	.loc	7 499 2 epilogue_begin is_stmt 1
	ldp	x29, x30, [sp, #32]
	ldp	x20, x19, [sp, #16]
Ltmp85:
	ldp	x22, x21, [sp], #48
	.cfi_def_cfa_offset 0
	.cfi_restore w30
	.cfi_restore w29
	.cfi_restore w19
	.cfi_restore w20
	.cfi_restore w21
	.cfi_restore w22
	ret
Ltmp86:
LBB7_11:
	.cfi_restore_state
	.loc	7 0 2 is_stmt 0
	mov	x0, x21
	cbnz	x21, LBB7_7
	b	LBB7_4
	.loh AdrpLdrGot	Lloh2, Lloh3
Lfunc_end7:
	.cfi_endproc

	.p2align	2
__ZN5alloc7raw_vec19RawVec$LT$T$C$A$GT$7reserve21do_reserve_and_handle17h7b0c7ec7f4bbcf0cE:
Lfunc_begin8:
	.loc	7 284 0 is_stmt 1
	.cfi_startproc
	sub	sp, sp, #80
	.cfi_def_cfa_offset 80
	stp	x20, x19, [sp, #48]
	stp	x29, x30, [sp, #64]
	add	x29, sp, #64
	.cfi_def_cfa w29, 16
	.cfi_offset w30, -8
	.cfi_offset w29, -16
	.cfi_offset w19, -24
	.cfi_offset w20, -32
	.cfi_remember_state
Ltmp87:
	.loc	9 1269 5 prologue_end
	adds	x9, x1, x2
Ltmp88:
	.loc	7 404 28
	b.hs	LBB8_5
Ltmp89:
	.loc	7 0 28 is_stmt 0
	mov	x19, x0
Ltmp90:
	.loc	7 408 28 is_stmt 1
	ldr	x8, [x0, #8]
	lsl	x10, x8, #1
Ltmp91:
	.file	13 "/rustc/b10cfcd65fd7f7b1ab9beb34798b2108de003452/library/core/src" "cmp.rs"
	.loc	13 0 0 is_stmt 0
	cmp	x10, x9
	csel	x9, x10, x9, hi
Ltmp92:
	mov	w10, #4
Ltmp93:
	cmp	x9, #4
	csel	x20, x9, x10, hi
	mov	x9, #6148914691236517205
Ltmp94:
	movk	x9, #21846
	movk	x9, #1365, lsl #48
	cmp	x20, x9
Ltmp95:
	.file	14 "/rustc/b10cfcd65fd7f7b1ab9beb34798b2108de003452/library/core/src/alloc" "layout.rs"
	.loc	14 449 37 is_stmt 1
	add	x9, x20, x20, lsl #1
Ltmp96:
	.loc	13 0 0 is_stmt 0
	cset	w10, lo
Ltmp97:
	.loc	14 449 37
	lsl	x2, x9, #3
Ltmp98:
	ubfiz	x1, x10, #3, #32
Ltmp99:
	.loc	7 240 25 is_stmt 1
	cbz	x8, LBB8_6
Ltmp100:
	.loc	7 414 43
	ldr	x9, [x19]
Ltmp101:
	.loc	9 1269 5
	add	x8, x8, x8, lsl #1
Ltmp102:
	lsl	x8, x8, #3
	mov	w10, #8
Ltmp103:
	.loc	7 252 17
	stp	x9, x10, [sp, #24]
	str	x8, [sp, #40]
Ltmp104:
	.loc	7 414 19
	mov	x0, sp
	add	x3, sp, #24
	bl	__ZN5alloc7raw_vec11finish_grow17h9428d2446860d993E
Ltmp105:
	.loc	12 1946 15
	ldp	x8, x0, [sp]
Ltmp106:
	.loc	7 414 19
	cbz	x8, LBB8_7
Ltmp107:
LBB8_3:
	.loc	7 0 19 is_stmt 0
	mov	x8, #-9223372036854775807
Ltmp108:
	.loc	7 514 5 is_stmt 1
	cmp	x0, x8
	b.eq	LBB8_8
Ltmp109:
	cbnz	x0, LBB8_9
Ltmp110:
LBB8_5:
	.loc	7 515 34
	bl	__ZN5alloc7raw_vec17capacity_overflow17h386216d6b0eee3c7E
Ltmp111:
LBB8_6:
	.loc	7 241 13
	str	xzr, [sp, #32]
Ltmp112:
	.loc	7 414 19
	mov	x0, sp
	add	x3, sp, #24
	bl	__ZN5alloc7raw_vec11finish_grow17h9428d2446860d993E
Ltmp113:
	.loc	12 1946 15
	ldp	x8, x0, [sp]
Ltmp114:
	.loc	7 414 19
	cbnz	x8, LBB8_3
Ltmp115:
LBB8_7:
	.loc	7 382 9
	stp	x0, x20, [x19]
Ltmp116:
LBB8_8:
	.cfi_def_cfa wsp, 80
	.loc	7 290 10 epilogue_begin
	ldp	x29, x30, [sp, #64]
	ldp	x20, x19, [sp, #48]
Ltmp117:
	add	sp, sp, #80
	.cfi_def_cfa_offset 0
	.cfi_restore w30
	.cfi_restore w29
	.cfi_restore w19
	.cfi_restore w20
	ret
Ltmp118:
LBB8_9:
	.cfi_restore_state
	.loc	7 289 0
	ldr	x1, [sp, #16]
Ltmp119:
	.loc	7 516 43
	bl	__ZN5alloc5alloc18handle_alloc_error17hfb942afd7716c7bbE
Ltmp120:
Lfunc_end8:
	.cfi_endproc

	.section	__TEXT,__literal8,8byte_literals
	.p2align	3, 0x0
lCPI9_0:
	.long	32
	.long	4
	.section	__TEXT,__text,regular,pure_instructions
	.p2align	2
__ZN4day04main17hd9841f7f01d404f9E:
Lfunc_begin9:
	.file	15 "/Users/draine/code/aoc/2023/rust/day0" "src/main.rs"
	.loc	15 3 0
	.cfi_startproc
	.cfi_personality 155, _rust_eh_personality
	.cfi_lsda 16, Lexception0
	sub	sp, sp, #320
	.cfi_def_cfa_offset 320
	stp	x26, x25, [sp, #240]
	stp	x24, x23, [sp, #256]
	stp	x22, x21, [sp, #272]
	stp	x20, x19, [sp, #288]
	stp	x29, x30, [sp, #304]
	add	x29, sp, #304
	.cfi_def_cfa w29, 16
	.cfi_offset w30, -8
	.cfi_offset w29, -16
	.cfi_offset w19, -24
	.cfi_offset w20, -32
	.cfi_offset w21, -40
	.cfi_offset w22, -48
	.cfi_offset w23, -56
	.cfi_offset w24, -64
	.cfi_offset w25, -72
	.cfi_offset w26, -80
	.cfi_remember_state
Ltmp121:
	.loc	15 4 29 prologue_end
	add	x8, sp, #24
	bl	__ZN3std3env4args17h5bf0bc8e333f5ba5E
Ltmp122:
Ltmp0:
	.file	16 "/rustc/b10cfcd65fd7f7b1ab9beb34798b2108de003452/library/alloc/src/vec" "spec_from_iter_nested.rs"
	.loc	16 26 32
	add	x8, sp, #120
	add	x0, sp, #24
	bl	__ZN73_$LT$std..env..Args$u20$as$u20$core..iter..traits..iterator..Iterator$GT$4next17h25a33e71641d7c4aE
Ltmp1:
Ltmp123:
	ldr	x20, [sp, #120]
	.loc	16 26 26 is_stmt 0
	cbz	x20, LBB9_34
	.loc	16 28 18 is_stmt 1
	ldp	x23, x24, [sp, #128]
Ltmp3:
Ltmp124:
	.loc	16 29 34
	sub	x8, x29, #128
	add	x0, sp, #24
	bl	__ZN73_$LT$std..env..Args$u20$as$u20$core..iter..traits..iterator..Iterator$GT$9size_hint17hcbc665169ca192f8E
Ltmp4:
Ltmp125:
	.loc	16 29 22 is_stmt 0
	ldur	x8, [x29, #-128]
Ltmp126:
	.loc	9 1269 5 is_stmt 1
	adds	x8, x8, #1
Ltmp127:
	csinv	x8, x8, xzr, lo
	mov	w9, #4
Ltmp128:
	.loc	13 0 0 is_stmt 0
	cmp	x8, #4
	csel	x25, x8, x9, hi
Ltmp129:
	mov	x8, #6148914691236517205
Ltmp130:
	movk	x8, #21846
	movk	x8, #1365, lsl #48
Ltmp131:
	.loc	7 175 26 is_stmt 1
	cmp	x25, x8
	b.hs	LBB9_39
Ltmp132:
	.loc	7 0 0 is_stmt 0
	add	x8, x25, x25, lsl #1
	lsl	x19, x8, #3
Ltmp133:
	.loc	6 1568 9 is_stmt 1
Lloh4:
	adrp	x8, ___rust_no_alloc_shim_is_unstable@GOTPAGE
Lloh5:
	ldr	x8, [x8, ___rust_no_alloc_shim_is_unstable@GOTPAGEOFF]
Ltmp134:
	ldrb	wzr, [x8]
Ltmp135:
	.loc	8 98 9
	mov	x0, x19
	mov	w1, #8
	bl	___rust_alloc
Ltmp136:
	.loc	7 187 23
	cbz	x0, LBB9_40
Ltmp137:
	.loc	7 0 23 is_stmt 0
	mov	x21, x0
	mov	x22, #0
	sub	x8, x29, #128
Ltmp138:
	.loc	6 1400 9 is_stmt 1
	stp	x20, x23, [x0]
	str	x24, [x0, #16]
Ltmp139:
	.loc	16 38 17
	stp	x0, x25, [sp, #56]
	mov	w19, #1
	str	x19, [sp, #72]
Ltmp140:
	.loc	16 43 64
	ldur	q0, [sp, #24]
	ldur	q1, [sp, #40]
	stp	q0, q1, [x8]
Ltmp141:
	.loc	16 0 64 is_stmt 0
	b	LBB9_8
Ltmp142:
LBB9_6:
	.loc	7 223 9 is_stmt 1
	ldr	x21, [sp, #56]
Ltmp143:
LBB9_7:
	.loc	6 1400 9
	add	x8, x21, x22
	str	x20, [x8, #24]
	ldr	q0, [sp]
	str	q0, [x8, #32]
Ltmp144:
	.loc	10 2869 30
	add	x19, x19, #1
Ltmp145:
	.loc	10 1421 9
	str	x19, [sp, #72]
Ltmp146:
	.loc	10 2858 9
	add	x22, x22, #24
Ltmp147:
LBB9_8:
Ltmp5:
	.loc	10 2858 35 is_stmt 0
	add	x8, sp, #80
	sub	x0, x29, #128
	bl	__ZN73_$LT$std..env..Args$u20$as$u20$core..iter..traits..iterator..Iterator$GT$4next17h25a33e71641d7c4aE
Ltmp6:
Ltmp148:
	.loc	10 2858 19
	ldr	x20, [sp, #80]
	cbz	x20, LBB9_13
Ltmp149:
	.loc	10 2858 24
	ldur	q0, [sp, #88]
Ltmp150:
	.loc	10 0 24
	str	q0, [sp]
Ltmp151:
	.loc	7 231 44 is_stmt 1
	ldr	x8, [sp, #64]
Ltmp152:
	.loc	10 2860 16
	cmp	x19, x8
	b.ne	LBB9_7
Ltmp153:
Ltmp8:
	.loc	10 2861 34
	add	x8, sp, #120
	sub	x0, x29, #128
	bl	__ZN73_$LT$std..env..Args$u20$as$u20$core..iter..traits..iterator..Iterator$GT$9size_hint17hcbc665169ca192f8E
Ltmp9:
Ltmp154:
	.loc	10 2861 22 is_stmt 0
	ldr	x8, [sp, #120]
Ltmp155:
	.loc	9 1269 5 is_stmt 1
	adds	x8, x8, #1
Ltmp156:
	csinv	x2, x8, xzr, lo
Ltmp157:
Ltmp10:
	.loc	7 293 13
	add	x0, sp, #56
	mov	x1, x19
	bl	__ZN5alloc7raw_vec19RawVec$LT$T$C$A$GT$7reserve21do_reserve_and_handle17h7b0c7ec7f4bbcf0cE
Ltmp158:
Ltmp11:
	.loc	7 0 13 is_stmt 0
	b	LBB9_6
Ltmp159:
LBB9_13:
	.file	17 "/rustc/b10cfcd65fd7f7b1ab9beb34798b2108de003452/library/alloc/src/vec" "into_iter.rs"
	.loc	17 419 32 is_stmt 1
	ldp	x8, x9, [x29, #-112]
Ltmp160:
	.file	18 "/rustc/b10cfcd65fd7f7b1ab9beb34798b2108de003452/library/core/src/ptr" "const_ptr.rs"
	.loc	18 821 18
	subs	x9, x9, x8
Ltmp161:
	.loc	6 498 1
	b.eq	LBB9_18
Ltmp162:
	.loc	6 0 1 is_stmt 0
	mov	x10, #-6148914691236517206
	movk	x10, #43691
	.loc	17 419 0 is_stmt 1
	umulh	x9, x9, x10
	lsr	x19, x9, #4
Ltmp163:
	.loc	7 240 25
	add	x20, x8, #8
	b	LBB9_16
Ltmp164:
LBB9_15:
	.loc	6 498 1
	add	x20, x20, #24
	subs	x19, x19, #1
	b.eq	LBB9_18
Ltmp165:
LBB9_16:
	ldr	x1, [x20]
Ltmp166:
	.loc	7 240 25
	cbz	x1, LBB9_15
Ltmp167:
	.loc	6 498 1
	ldur	x0, [x20, #-8]
Ltmp168:
	.loc	8 117 14
	mov	w2, #1
	bl	___rust_dealloc
Ltmp169:
	.loc	8 0 14 is_stmt 0
	b	LBB9_15
Ltmp170:
LBB9_18:
	.loc	17 411 76 is_stmt 1
	ldur	x8, [x29, #-120]
Ltmp171:
	.loc	7 240 25
	cbz	x8, LBB9_20
Ltmp172:
	.loc	17 411 55
	ldur	x0, [x29, #-128]
Ltmp173:
	.loc	9 1269 5
	add	x8, x8, x8, lsl #1
Ltmp174:
	lsl	x1, x8, #3
Ltmp175:
	.loc	8 117 14
	mov	w2, #8
	bl	___rust_dealloc
Ltmp176:
LBB9_20:
	.loc	16 44 9
	ldur	q0, [sp, #56]
	str	q0, [sp, #80]
	ldr	x19, [sp, #72]
	str	x19, [sp, #96]
Ltmp177:
	.file	19 "/rustc/b10cfcd65fd7f7b1ab9beb34798b2108de003452/library/core/src/slice" "index.rs"
	.loc	19 252 10
	cmp	x19, #1
	b.ls	LBB9_38
Ltmp178:
	.loc	15 0 0 is_stmt 0
	ldr	x20, [sp, #80]
Ltmp179:
	.loc	10 2672 55 is_stmt 1
	ldr	x8, [x20, #40]
Ltmp180:
	.file	20 "/rustc/b10cfcd65fd7f7b1ab9beb34798b2108de003452/library/core/src/slice" "cmp.rs"
	.loc	20 74 12
	cmp	x8, #1
	b.ne	LBB9_25
Ltmp181:
	.loc	7 223 9
	ldr	x8, [x20, #24]
Ltmp182:
	.loc	20 82 13
	ldrb	w8, [x8]
Ltmp183:
	.loc	15 7 9
	cmp	w8, #50
	b.eq	LBB9_33
Ltmp184:
	cmp	w8, #49
	b.ne	LBB9_25
Ltmp185:
	.loc	15 14 5
Lloh6:
	adrp	x8, l___unnamed_2@PAGE
Lloh7:
	add	x8, x8, l___unnamed_2@PAGEOFF
	mov	w9, #6
	stp	x8, x9, [sp, #104]
	add	x8, sp, #104
Ltmp186:
	.loc	15 14 5 is_stmt 0
	stur	x8, [x29, #-136]
	sub	x8, x29, #136
Lloh8:
	adrp	x9, __ZN42_$LT$$RF$T$u20$as$u20$core..fmt..Debug$GT$3fmt17hbae5de0a784df959E@PAGE
Lloh9:
	add	x9, x9, __ZN42_$LT$$RF$T$u20$as$u20$core..fmt..Debug$GT$3fmt17hbae5de0a784df959E@PAGEOFF
	stp	x8, x9, [sp, #56]
	mov	w8, #2
	stur	x8, [x29, #-128]
	stur	x8, [x29, #-112]
	stur	xzr, [x29, #-96]
Lloh10:
	adrp	x9, lCPI9_0@PAGE
Lloh11:
	ldr	d0, [x9, lCPI9_0@PAGEOFF]
	stur	d0, [x29, #-88]
	mov	w9, #3
	sturb	w9, [x29, #-80]
Ltmp187:
	.loc	5 352 9 is_stmt 1
Lloh12:
	adrp	x9, l___unnamed_3@PAGE
Lloh13:
	add	x9, x9, l___unnamed_3@PAGEOFF
Ltmp188:
	stp	x9, x8, [sp, #120]
	sub	x8, x29, #128
	mov	w9, #1
Ltmp189:
	stp	x8, x9, [sp, #152]
	add	x8, sp, #56
	stp	x8, x9, [sp, #136]
Ltmp190:
Ltmp15:
	.loc	15 14 5
	add	x0, sp, #120
	bl	__ZN3std2io5stdio7_eprint17h150fa89f593a748cE
Ltmp16:
	b	LBB9_26
Ltmp191:
LBB9_25:
	.loc	5 325 9
Lloh14:
	adrp	x8, l___unnamed_4@PAGE
Lloh15:
	add	x8, x8, l___unnamed_4@PAGEOFF
Ltmp192:
	.loc	5 0 9 is_stmt 0
	mov	w9, #1
	.loc	5 325 9
	stp	x8, x9, [x29, #-128]
Lloh16:
	adrp	x8, l___unnamed_5@PAGE
Ltmp193:
Lloh17:
	add	x8, x8, l___unnamed_5@PAGEOFF
	stp	xzr, xzr, [x29, #-104]
	stur	x8, [x29, #-112]
Ltmp194:
Ltmp17:
	.loc	15 9 14 is_stmt 1
	sub	x0, x29, #128
	bl	__ZN3std2io5stdio6_print17hc11fad75e7961decE
Ltmp195:
Ltmp18:
LBB9_26:
	.loc	6 498 1
	add	x21, x20, #8
	b	LBB9_28
Ltmp196:
LBB9_27:
	add	x21, x21, #24
	subs	x19, x19, #1
	b.eq	LBB9_30
Ltmp197:
LBB9_28:
	ldr	x1, [x21]
Ltmp198:
	.loc	7 240 25
	cbz	x1, LBB9_27
Ltmp199:
	.loc	6 498 1
	ldur	x0, [x21, #-8]
Ltmp200:
	.loc	8 117 14
	mov	w2, #1
	bl	___rust_dealloc
Ltmp201:
	.loc	8 0 14 is_stmt 0
	b	LBB9_27
Ltmp202:
LBB9_30:
	.loc	6 498 1 is_stmt 1
	ldr	x8, [sp, #88]
Ltmp203:
	.loc	7 240 25
	cbz	x8, LBB9_32
Ltmp204:
	.loc	9 1269 5
	add	x8, x8, x8, lsl #1
Ltmp205:
	lsl	x1, x8, #3
Ltmp206:
	.loc	8 117 14
	mov	x0, x20
	mov	w2, #8
	bl	___rust_dealloc
Ltmp207:
LBB9_32:
	.cfi_def_cfa wsp, 320
	.loc	15 11 2 epilogue_begin
	ldp	x29, x30, [sp, #304]
	ldp	x20, x19, [sp, #288]
	ldp	x22, x21, [sp, #272]
	ldp	x24, x23, [sp, #256]
	ldp	x26, x25, [sp, #240]
	add	sp, sp, #320
	.cfi_def_cfa_offset 0
	.cfi_restore w30
	.cfi_restore w29
	.cfi_restore w19
	.cfi_restore w20
	.cfi_restore w21
	.cfi_restore w22
	.cfi_restore w23
	.cfi_restore w24
	.cfi_restore w25
	.cfi_restore w26
	ret
LBB9_33:
	.cfi_restore_state
Ltmp208:
	.loc	15 18 5
Lloh18:
	adrp	x8, l___unnamed_6@PAGE
Lloh19:
	add	x8, x8, l___unnamed_6@PAGEOFF
	mov	w9, #6
	stp	x8, x9, [sp, #104]
	add	x8, sp, #104
Ltmp209:
	.loc	15 18 5 is_stmt 0
	stur	x8, [x29, #-136]
	sub	x8, x29, #136
Lloh20:
	adrp	x9, __ZN42_$LT$$RF$T$u20$as$u20$core..fmt..Debug$GT$3fmt17hbae5de0a784df959E@PAGE
Lloh21:
	add	x9, x9, __ZN42_$LT$$RF$T$u20$as$u20$core..fmt..Debug$GT$3fmt17hbae5de0a784df959E@PAGEOFF
	stp	x8, x9, [sp, #56]
	mov	w8, #2
	stur	x8, [x29, #-128]
	stur	x8, [x29, #-112]
	stur	xzr, [x29, #-96]
Lloh22:
	adrp	x9, lCPI9_0@PAGE
Lloh23:
	ldr	d0, [x9, lCPI9_0@PAGEOFF]
	stur	d0, [x29, #-88]
	mov	w9, #3
	sturb	w9, [x29, #-80]
Ltmp210:
	.loc	5 352 9 is_stmt 1
Lloh24:
	adrp	x9, l___unnamed_7@PAGE
Lloh25:
	add	x9, x9, l___unnamed_7@PAGEOFF
Ltmp211:
	stp	x9, x8, [sp, #120]
	sub	x8, x29, #128
	mov	w9, #1
Ltmp212:
	stp	x8, x9, [sp, #152]
	add	x8, sp, #56
	stp	x8, x9, [sp, #136]
Ltmp213:
Ltmp13:
	.loc	15 18 5
	add	x0, sp, #120
	bl	__ZN3std2io5stdio7_eprint17h150fa89f593a748cE
Ltmp14:
	b	LBB9_26
Ltmp214:
LBB9_34:
	.loc	15 0 5 is_stmt 0
	mov	w8, #8
Ltmp215:
	.loc	10 423 9 is_stmt 1
	stp	xzr, xzr, [sp, #88]
	str	x8, [sp, #80]
Ltmp216:
	.loc	17 419 32
	ldp	x8, x9, [sp, #40]
Ltmp217:
	.loc	18 821 18
	subs	x9, x9, x8
Ltmp218:
	.loc	6 498 1
	b.ne	LBB9_42
Ltmp219:
LBB9_35:
	.loc	17 411 76
	ldr	x8, [sp, #32]
Ltmp220:
	.loc	7 240 25
	cbz	x8, LBB9_37
Ltmp221:
	.loc	17 411 55
	ldr	x0, [sp, #24]
Ltmp222:
	.loc	9 1269 5
	add	x8, x8, x8, lsl #1
Ltmp223:
	lsl	x1, x8, #3
Ltmp224:
	.loc	8 117 14
	mov	w2, #8
	bl	___rust_dealloc
Ltmp225:
LBB9_37:
	.loc	8 0 14 is_stmt 0
	mov	x19, #0
LBB9_38:
Ltmp24:
Ltmp226:
	.loc	19 252 10 is_stmt 1
Lloh26:
	adrp	x2, l___unnamed_8@PAGE
Lloh27:
	add	x2, x2, l___unnamed_8@PAGEOFF
	mov	w0, #1
	mov	x1, x19
	bl	__ZN4core9panicking18panic_bounds_check17hbe1f9896b0ca244bE
Ltmp25:
	b	LBB9_41
Ltmp227:
LBB9_39:
Ltmp21:
	.loc	7 177 27
	bl	__ZN5alloc7raw_vec17capacity_overflow17h386216d6b0eee3c7E
Ltmp22:
	b	LBB9_41
Ltmp228:
LBB9_40:
Ltmp19:
	.loc	7 189 27
	mov	w0, #8
Ltmp229:
	mov	x1, x19
	bl	__ZN5alloc5alloc18handle_alloc_error17hfb942afd7716c7bbE
Ltmp230:
Ltmp20:
LBB9_41:
	.loc	7 0 27 is_stmt 0
	brk	#0x1
LBB9_42:
Ltmp231:
	mov	x10, #-6148914691236517206
	movk	x10, #43691
Ltmp232:
	.loc	17 419 0 is_stmt 1
	umulh	x9, x9, x10
	lsr	x19, x9, #4
Ltmp233:
	.loc	7 240 25
	add	x20, x8, #8
	b	LBB9_44
Ltmp234:
LBB9_43:
	.loc	6 498 1
	add	x20, x20, #24
	subs	x19, x19, #1
	b.eq	LBB9_35
Ltmp235:
LBB9_44:
	ldr	x1, [x20]
Ltmp236:
	.loc	7 240 25
	cbz	x1, LBB9_43
Ltmp237:
	.loc	6 498 1
	ldur	x0, [x20, #-8]
Ltmp238:
	.loc	8 117 14
	mov	w2, #1
	bl	___rust_dealloc
Ltmp239:
	.loc	8 0 14 is_stmt 0
	b	LBB9_43
Ltmp240:
LBB9_46:
Ltmp2:
	mov	x19, x0
	b	LBB9_50
Ltmp241:
LBB9_47:
Ltmp26:
	mov	x19, x0
	.loc	15 11 1 is_stmt 1
	add	x0, sp, #80
	bl	__ZN4core3ptr65drop_in_place$LT$alloc..vec..Vec$LT$alloc..string..String$GT$$GT$17h8c7550fe98ea3607E
	mov	x0, x19
	bl	__Unwind_Resume
LBB9_48:
Ltmp23:
	.loc	15 0 1 is_stmt 0
	mov	x19, x0
Ltmp242:
	.loc	7 240 25 is_stmt 1
	cbz	x23, LBB9_50
Ltmp243:
	.loc	7 0 25 is_stmt 0
	mov	x1, x23
Ltmp244:
	.loc	8 117 14 is_stmt 1
	mov	x0, x20
	mov	w2, #1
	bl	___rust_dealloc
Ltmp245:
LBB9_50:
	.loc	17 419 32
	ldp	x8, x9, [sp, #40]
Ltmp246:
	.loc	18 821 18
	subs	x9, x9, x8
Ltmp247:
	.loc	6 498 1
	b.ne	LBB9_53
Ltmp248:
LBB9_51:
	.loc	17 411 76
	ldr	x8, [sp, #32]
Ltmp249:
	.loc	7 240 25
	cbz	x8, LBB9_65
Ltmp250:
	.loc	17 411 55
	ldr	x0, [sp, #24]
Ltmp251:
	.loc	9 1269 5
	add	x8, x8, x8, lsl #1
Ltmp252:
	lsl	x1, x8, #3
Ltmp253:
	.loc	16 45 5
	mov	w2, #8
	bl	___rust_dealloc
Ltmp254:
	.loc	16 0 5 is_stmt 0
	mov	x0, x19
	bl	__Unwind_Resume
Ltmp255:
LBB9_53:
	mov	x10, #-6148914691236517206
	movk	x10, #43691
Ltmp256:
	.loc	17 419 0 is_stmt 1
	umulh	x9, x9, x10
	lsr	x20, x9, #4
Ltmp257:
	.loc	7 240 25
	add	x21, x8, #8
	b	LBB9_55
Ltmp258:
LBB9_54:
	.loc	6 498 1
	add	x21, x21, #24
	subs	x20, x20, #1
	b.eq	LBB9_51
Ltmp259:
LBB9_55:
	ldr	x1, [x21]
Ltmp260:
	.loc	7 240 25
	cbz	x1, LBB9_54
Ltmp261:
	.loc	6 498 1
	ldur	x0, [x21, #-8]
Ltmp262:
	.loc	8 117 14
	mov	w2, #1
	bl	___rust_dealloc
Ltmp263:
	.loc	8 0 14 is_stmt 0
	b	LBB9_54
Ltmp264:
LBB9_57:
Ltmp12:
	mov	x19, x0
Ltmp265:
	ldr	q0, [sp]
Ltmp266:
	.loc	7 240 25 is_stmt 1
	fmov	x1, d0
	cbz	x1, LBB9_60
Ltmp267:
	.loc	8 117 14
	mov	x0, x20
	mov	w2, #1
	bl	___rust_dealloc
	b	LBB9_60
Ltmp268:
LBB9_59:
Ltmp7:
	.loc	8 0 14 is_stmt 0
	mov	x19, x0
Ltmp269:
LBB9_60:
	.loc	17 419 32 is_stmt 1
	ldp	x8, x9, [x29, #-112]
Ltmp270:
	.loc	18 821 18
	subs	x9, x9, x8
Ltmp271:
	.loc	6 498 1
	b.ne	LBB9_66
Ltmp272:
LBB9_61:
	.loc	17 411 76
	ldur	x8, [x29, #-120]
Ltmp273:
	.loc	7 240 25
	cbz	x8, LBB9_63
Ltmp274:
	.loc	17 411 55
	ldur	x0, [x29, #-128]
Ltmp275:
	.loc	9 1269 5
	add	x8, x8, x8, lsl #1
Ltmp276:
	lsl	x1, x8, #3
Ltmp277:
	.loc	8 117 14
	mov	w2, #8
	bl	___rust_dealloc
Ltmp278:
LBB9_63:
	.loc	6 498 1
	ldr	x20, [sp, #56]
	ldr	x21, [sp, #72]
Ltmp279:
	.loc	6 498 1 is_stmt 0
	cbnz	x21, LBB9_70
Ltmp280:
LBB9_64:
	.loc	6 498 1
	ldr	x8, [sp, #64]
	cbnz	x8, LBB9_74
Ltmp281:
LBB9_65:
	.loc	6 0 1
	mov	x0, x19
	bl	__Unwind_Resume
LBB9_66:
Ltmp282:
	mov	x10, #-6148914691236517206
	movk	x10, #43691
Ltmp283:
	.loc	17 419 0 is_stmt 1
	umulh	x9, x9, x10
	lsr	x20, x9, #4
Ltmp284:
	.loc	7 240 25
	add	x21, x8, #8
	b	LBB9_68
Ltmp285:
LBB9_67:
	.loc	6 498 1
	add	x21, x21, #24
	subs	x20, x20, #1
	b.eq	LBB9_61
Ltmp286:
LBB9_68:
	ldr	x1, [x21]
Ltmp287:
	.loc	7 240 25
	cbz	x1, LBB9_67
Ltmp288:
	.loc	6 498 1
	ldur	x0, [x21, #-8]
Ltmp289:
	.loc	8 117 14
	mov	w2, #1
	bl	___rust_dealloc
Ltmp290:
	.loc	8 0 14 is_stmt 0
	b	LBB9_67
Ltmp291:
LBB9_70:
	.loc	7 240 25 is_stmt 1
	add	x22, x20, #8
	b	LBB9_72
Ltmp292:
LBB9_71:
	.loc	6 498 1
	add	x22, x22, #24
	subs	x21, x21, #1
	b.eq	LBB9_64
Ltmp293:
LBB9_72:
	ldr	x1, [x22]
Ltmp294:
	.loc	7 240 25
	cbz	x1, LBB9_71
Ltmp295:
	.loc	6 498 1
	ldur	x0, [x22, #-8]
Ltmp296:
	.loc	8 117 14
	mov	w2, #1
	bl	___rust_dealloc
Ltmp297:
	.loc	8 0 14 is_stmt 0
	b	LBB9_71
Ltmp298:
LBB9_74:
	.loc	9 1269 5 is_stmt 1
	add	x8, x8, x8, lsl #1
Ltmp299:
	lsl	x1, x8, #3
Ltmp300:
	.loc	8 117 14
	mov	x0, x20
Ltmp301:
	.loc	16 45 5
	mov	w2, #8
	bl	___rust_dealloc
Ltmp302:
	.loc	16 0 5 is_stmt 0
	mov	x0, x19
	bl	__Unwind_Resume
Ltmp303:
	.loh AdrpLdrGot	Lloh4, Lloh5
	.loh AdrpAdd	Lloh12, Lloh13
	.loh AdrpLdr	Lloh10, Lloh11
	.loh AdrpAdd	Lloh8, Lloh9
	.loh AdrpAdd	Lloh6, Lloh7
	.loh AdrpAdd	Lloh16, Lloh17
	.loh AdrpAdd	Lloh14, Lloh15
	.loh AdrpAdd	Lloh24, Lloh25
	.loh AdrpLdr	Lloh22, Lloh23
	.loh AdrpAdd	Lloh20, Lloh21
	.loh AdrpAdd	Lloh18, Lloh19
	.loh AdrpAdd	Lloh26, Lloh27
Lfunc_end9:
	.cfi_endproc
	.file	21 "/rustc/b10cfcd65fd7f7b1ab9beb34798b2108de003452/library/alloc/src/vec" "spec_from_iter.rs"
	.file	22 "/rustc/b10cfcd65fd7f7b1ab9beb34798b2108de003452/library/core/src/iter/traits" "iterator.rs"
	.file	23 "/rustc/b10cfcd65fd7f7b1ab9beb34798b2108de003452/library/alloc/src/vec" "spec_extend.rs"
	.file	24 "/rustc/b10cfcd65fd7f7b1ab9beb34798b2108de003452/library/core/src/iter/traits" "exact_size.rs"
	.file	25 "/rustc/b10cfcd65fd7f7b1ab9beb34798b2108de003452/library/alloc/src" "string.rs"
	.file	26 "/rustc/b10cfcd65fd7f7b1ab9beb34798b2108de003452/library/core/src/str" "traits.rs"
	.file	27 "/rustc/b10cfcd65fd7f7b1ab9beb34798b2108de003452/library/std/src" "macros.rs"
	.section	__TEXT,__gcc_except_tab
	.p2align	2, 0x0
GCC_except_table9:
Lexception0:
	.byte	255
	.byte	255
	.byte	1
	.uleb128 Lcst_end0-Lcst_begin0
Lcst_begin0:
	.uleb128 Lfunc_begin9-Lfunc_begin9
	.uleb128 Ltmp0-Lfunc_begin9
	.byte	0
	.byte	0
	.uleb128 Ltmp0-Lfunc_begin9
	.uleb128 Ltmp1-Ltmp0
	.uleb128 Ltmp2-Lfunc_begin9
	.byte	0
	.uleb128 Ltmp3-Lfunc_begin9
	.uleb128 Ltmp4-Ltmp3
	.uleb128 Ltmp23-Lfunc_begin9
	.byte	0
	.uleb128 Ltmp5-Lfunc_begin9
	.uleb128 Ltmp6-Ltmp5
	.uleb128 Ltmp7-Lfunc_begin9
	.byte	0
	.uleb128 Ltmp8-Lfunc_begin9
	.uleb128 Ltmp11-Ltmp8
	.uleb128 Ltmp12-Lfunc_begin9
	.byte	0
	.uleb128 Ltmp15-Lfunc_begin9
	.uleb128 Ltmp25-Ltmp15
	.uleb128 Ltmp26-Lfunc_begin9
	.byte	0
	.uleb128 Ltmp21-Lfunc_begin9
	.uleb128 Ltmp20-Ltmp21
	.uleb128 Ltmp23-Lfunc_begin9
	.byte	0
	.uleb128 Ltmp20-Lfunc_begin9
	.uleb128 Lfunc_end9-Ltmp20
	.byte	0
	.byte	0
Lcst_end0:
	.p2align	2, 0x0

	.section	__TEXT,__text,regular,pure_instructions
	.globl	_main
	.p2align	2
_main:
Lfunc_begin10:
	.cfi_startproc
	stp	x29, x30, [sp, #-16]!
	mov	x29, sp
	.cfi_def_cfa w29, 16
	.cfi_offset w30, -8
	.cfi_offset w29, -16
	mov	x2, x1
	sxtw	x1, w0
Lloh28:
	adrp	x0, __ZN4day04main17hd9841f7f01d404f9E@PAGE
Lloh29:
	add	x0, x0, __ZN4day04main17hd9841f7f01d404f9E@PAGEOFF
	mov	w3, #0
	bl	__ZN3std2rt10lang_start17h8b3a998ca51e4c48E
	ldp	x29, x30, [sp], #16
	ret
	.loh AdrpAdd	Lloh28, Lloh29
Lfunc_end10:
	.cfi_endproc

	.section	__DATA,__const
	.p2align	3, 0x0
l___unnamed_1:
	.quad	__ZN4core3ptr85drop_in_place$LT$std..rt..lang_start$LT$$LP$$RP$$GT$..$u7b$$u7b$closure$u7d$$u7d$$GT$17hea9882ec5102adcfE
	.asciz	"\b\000\000\000\000\000\000\000\b\000\000\000\000\000\000"
	.quad	__ZN4core3ops8function6FnOnce40call_once$u7b$$u7b$vtable.shim$u7d$$u7d$17hd4c7658d91d773d6E
	.quad	__ZN3std2rt10lang_start28_$u7b$$u7b$closure$u7d$$u7d$17h6bd09f8adeabe4ddE
	.quad	__ZN3std2rt10lang_start28_$u7b$$u7b$closure$u7d$$u7d$17h6bd09f8adeabe4ddE

	.section	__TEXT,__const
l___unnamed_9:
	.ascii	"src/main.rs"

	.section	__DATA,__const
	.p2align	3, 0x0
l___unnamed_8:
	.quad	l___unnamed_9
	.asciz	"\013\000\000\000\000\000\000\000\005\000\000\000\034\000\000"

	.section	__TEXT,__const
l___unnamed_10:
	.ascii	"Select part 1 or 2\n"

	.section	__DATA,__const
	.p2align	3, 0x0
l___unnamed_4:
	.quad	l___unnamed_10
	.asciz	"\023\000\000\000\000\000\000"

	.section	__TEXT,__const
	.p2align	3, 0x0
l___unnamed_5:
	.byte	0

l___unnamed_2:
	.ascii	"part 1"

l___unnamed_11:
	.ascii	"[src/main.rs:14] \"part 1\" = "

l___unnamed_12:
	.byte	10

	.section	__DATA,__const
	.p2align	3, 0x0
l___unnamed_3:
	.quad	l___unnamed_11
	.asciz	"\034\000\000\000\000\000\000"
	.quad	l___unnamed_12
	.asciz	"\001\000\000\000\000\000\000"

	.section	__TEXT,__const
l___unnamed_6:
	.ascii	"part 2"

l___unnamed_13:
	.ascii	"[src/main.rs:18] \"part 2\" = "

	.section	__DATA,__const
	.p2align	3, 0x0
l___unnamed_7:
	.quad	l___unnamed_13
	.asciz	"\034\000\000\000\000\000\000"
	.quad	l___unnamed_12
	.asciz	"\001\000\000\000\000\000\000"

	.section	__DATA,__const
Lsec_end0:
	.section	__TEXT,__text,regular,pure_instructions
Lsec_end1: