---
triple:          'arm64-apple-darwin'
binary-path:     '/Users/draine/code/aoc/2023/rust/day0/target/release/deps/day0-fd530fb0f9182ab7'
relocations:
  - { offsetInCU: 0x1E, offset: 0x1E, size: 0x8, addend: 0x0, symName: __ZN3std10sys_common9backtrace28__rust_begin_short_backtrace17h5f27f32013af3678E, symObjAddr: 0x0, symBinAddr: 0x100003464, symSize: 0x14 }
  - { offsetInCU: 0x5B, offset: 0x5B, size: 0x8, addend: 0x0, symName: '__ZN3std2rt10lang_start28_$u7b$$u7b$closure$u7d$$u7d$17h6bd09f8adeabe4ddE', symObjAddr: 0x4C, symBinAddr: 0x1000034B0, symSize: 0x1C }
  - { offsetInCU: 0x9F, offset: 0x9F, size: 0x8, addend: 0x0, symName: __ZN3std2rt10lang_start17h8b3a998ca51e4c48E, symObjAddr: 0x14, symBinAddr: 0x100003478, symSize: 0x38 }
  - { offsetInCU: 0x10D, offset: 0x10D, size: 0x8, addend: 0x0, symName: __ZN3std10sys_common9backtrace28__rust_begin_short_backtrace17h5f27f32013af3678E, symObjAddr: 0x0, symBinAddr: 0x100003464, symSize: 0x14 }
  - { offsetInCU: 0x4B6, offset: 0x4B6, size: 0x8, addend: 0x0, symName: '__ZN42_$LT$$RF$T$u20$as$u20$core..fmt..Debug$GT$3fmt17hbae5de0a784df959E', symObjAddr: 0x68, symBinAddr: 0x1000034CC, symSize: 0x10 }
  - { offsetInCU: 0xC13, offset: 0xC13, size: 0x8, addend: 0x0, symName: '__ZN4core3ptr65drop_in_place$LT$alloc..vec..Vec$LT$alloc..string..String$GT$$GT$17h8c7550fe98ea3607E', symObjAddr: 0x94, symBinAddr: 0x1000034F8, symSize: 0x84 }
  - { offsetInCU: 0xE06, offset: 0xE06, size: 0x8, addend: 0x0, symName: '__ZN4core3ptr85drop_in_place$LT$std..rt..lang_start$LT$$LP$$RP$$GT$..$u7b$$u7b$closure$u7d$$u7d$$GT$17hea9882ec5102adcfE', symObjAddr: 0x118, symBinAddr: 0x10000357C, symSize: 0x4 }
  - { offsetInCU: 0x10C1, offset: 0x10C1, size: 0x8, addend: 0x0, symName: '__ZN4core3ops8function6FnOnce40call_once$u7b$$u7b$vtable.shim$u7d$$u7d$17hd4c7658d91d773d6E', symObjAddr: 0x78, symBinAddr: 0x1000034DC, symSize: 0x1C }
  - { offsetInCU: 0x1F74, offset: 0x1F74, size: 0x8, addend: 0x0, symName: __ZN5alloc7raw_vec11finish_grow17h9428d2446860d993E, symObjAddr: 0x11C, symBinAddr: 0x100003580, symSize: 0xA4 }
  - { offsetInCU: 0x21D1, offset: 0x21D1, size: 0x8, addend: 0x0, symName: '__ZN5alloc7raw_vec19RawVec$LT$T$C$A$GT$7reserve21do_reserve_and_handle17h7b0c7ec7f4bbcf0cE', symObjAddr: 0x1C0, symBinAddr: 0x100034ED0, symSize: 0xD0 }
  - { offsetInCU: 0x37BF, offset: 0x37BF, size: 0x8, addend: 0x0, symName: __ZN4day04main17hd9841f7f01d404f9E, symObjAddr: 0x290, symBinAddr: 0x100003624, symSize: 0x588 }
  - { offsetInCU: 0x1E, offset: 0x5183, size: 0x8, addend: 0x0, symName: '__ZN106_$LT$core..ops..range..Range$LT$usize$GT$$u20$as$u20$core..slice..index..SliceIndex$LT$$u5b$T$u5d$$GT$$GT$5index17h2401de29503c542eE', symObjAddr: 0x0, symBinAddr: 0x100003BE4, symSize: 0x40 }
  - { offsetInCU: 0xC75, offset: 0x5DDA, size: 0x8, addend: 0x0, symName: '__ZN4core3ptr107drop_in_place$LT$std..backtrace..lazy_resolve..$u7b$$u7b$closure$u7d$$u7d$..$u7b$$u7b$closure$u7d$$u7d$$GT$17h09f8e05876995368E', symObjAddr: 0x179C, symBinAddr: 0x1000044C8, symSize: 0x4 }
  - { offsetInCU: 0xCDD, offset: 0x5E42, size: 0x8, addend: 0x0, symName: '__ZN4core3ptr108drop_in_place$LT$alloc..collections..btree..map..BTreeMap$LT$u64$C$gimli..read..abbrev..Abbreviation$GT$$GT$17h9101fc10d0882b0dE', symObjAddr: 0x17A0, symBinAddr: 0x1000044CC, symSize: 0xB0 }
  - { offsetInCU: 0xEA2, offset: 0x6007, size: 0x8, addend: 0x0, symName: '__ZN4core3ptr123drop_in_place$LT$addr2line..Context$LT$gimli..read..endian_slice..EndianSlice$LT$gimli..endianity..LittleEndian$GT$$GT$$GT$17h13392a907325c689E', symObjAddr: 0x18C8, symBinAddr: 0x10000457C, symSize: 0x134 }
  - { offsetInCU: 0x11B1, offset: 0x6316, size: 0x8, addend: 0x0, symName: '__ZN4core3ptr123drop_in_place$LT$addr2line..ResUnit$LT$gimli..read..endian_slice..EndianSlice$LT$gimli..endianity..LittleEndian$GT$$GT$$GT$17ha6a0719da1cefcddE', symObjAddr: 0x19FC, symBinAddr: 0x1000046B0, symSize: 0xE4 }
  - { offsetInCU: 0x1386, offset: 0x64EB, size: 0x8, addend: 0x0, symName: '__ZN4core3ptr123drop_in_place$LT$addr2line..SupUnit$LT$gimli..read..endian_slice..EndianSlice$LT$gimli..endianity..LittleEndian$GT$$GT$$GT$17h71d435a1c3b6367eE', symObjAddr: 0x1AE0, symBinAddr: 0x100004794, symSize: 0x54 }
  - { offsetInCU: 0x145D, offset: 0x65C2, size: 0x8, addend: 0x0, symName: '__ZN4core3ptr130drop_in_place$LT$gimli..read..dwarf..Dwarf$LT$gimli..read..endian_slice..EndianSlice$LT$gimli..endianity..LittleEndian$GT$$GT$$GT$17hcec8ec461469b05cE', symObjAddr: 0x1C58, symBinAddr: 0x1000047E8, symSize: 0x8C }
  - { offsetInCU: 0x164A, offset: 0x67AF, size: 0x8, addend: 0x0, symName: '__ZN4core3ptr137drop_in_place$LT$gimli..read..dwarf..Unit$LT$gimli..read..endian_slice..EndianSlice$LT$gimli..endianity..LittleEndian$GT$$C$usize$GT$$GT$17h88c459db35a1d7b2E', symObjAddr: 0x1D54, symBinAddr: 0x100004874, symSize: 0x54 }
  - { offsetInCU: 0x1718, offset: 0x687D, size: 0x8, addend: 0x0, symName: '__ZN4core3ptr144drop_in_place$LT$alloc..vec..Vec$LT$core..option..Option$LT$core..option..Option$LT$std..backtrace_rs..symbolize..gimli..Mapping$GT$$GT$$GT$$GT$17hf982b20a5483c9ebE', symObjAddr: 0x1DA8, symBinAddr: 0x1000048C8, symSize: 0x108 }
  - { offsetInCU: 0x18AA, offset: 0x6A0F, size: 0x8, addend: 0x0, symName: '__ZN4core3ptr146drop_in_place$LT$alloc..vec..Vec$LT$addr2line..ResUnit$LT$gimli..read..endian_slice..EndianSlice$LT$gimli..endianity..LittleEndian$GT$$GT$$GT$$GT$17h8e7b976647a23a1fE', symObjAddr: 0x1EB0, symBinAddr: 0x1000049D0, symSize: 0xC8 }
  - { offsetInCU: 0x1A00, offset: 0x6B65, size: 0x8, addend: 0x0, symName: '__ZN4core3ptr146drop_in_place$LT$alloc..vec..Vec$LT$addr2line..SupUnit$LT$gimli..read..endian_slice..EndianSlice$LT$gimli..endianity..LittleEndian$GT$$GT$$GT$$GT$17hb51be850d787b31bE', symObjAddr: 0x1F78, symBinAddr: 0x100004A98, symSize: 0x138 }
  - { offsetInCU: 0x1C5B, offset: 0x6DC0, size: 0x8, addend: 0x0, symName: '__ZN4core3ptr158drop_in_place$LT$alloc..boxed..Box$LT$$u5b$addr2line..ResUnit$LT$gimli..read..endian_slice..EndianSlice$LT$gimli..endianity..LittleEndian$GT$$GT$$u5d$$GT$$GT$17ha0a1bc539900e8d9E', symObjAddr: 0x2178, symBinAddr: 0x100004BD0, symSize: 0xC8 }
  - { offsetInCU: 0x1D50, offset: 0x6EB5, size: 0x8, addend: 0x0, symName: '__ZN4core3ptr158drop_in_place$LT$alloc..boxed..Box$LT$$u5b$addr2line..SupUnit$LT$gimli..read..endian_slice..EndianSlice$LT$gimli..endianity..LittleEndian$GT$$GT$$u5d$$GT$$GT$17h1cff8eac3e7bd810E', symObjAddr: 0x2240, symBinAddr: 0x100004C98, symSize: 0xEC }
  - { offsetInCU: 0x1EEC, offset: 0x7051, size: 0x8, addend: 0x0, symName: '__ZN4core3ptr159drop_in_place$LT$alloc..sync..ArcInner$LT$gimli..read..dwarf..Dwarf$LT$gimli..read..endian_slice..EndianSlice$LT$gimli..endianity..LittleEndian$GT$$GT$$GT$$GT$17hd520f9eb92fc8387E', symObjAddr: 0x232C, symBinAddr: 0x100004D84, symSize: 0xB8 }
  - { offsetInCU: 0x22A1, offset: 0x7406, size: 0x8, addend: 0x0, symName: '__ZN4core3ptr174drop_in_place$LT$core..result..Result$LT$addr2line..FrameIter$LT$gimli..read..endian_slice..EndianSlice$LT$gimli..endianity..LittleEndian$GT$$GT$$C$gimli..read..Error$GT$$GT$17hd0580b24f5524bdbE', symObjAddr: 0x23E4, symBinAddr: 0x100004E3C, symSize: 0x34 }
  - { offsetInCU: 0x240C, offset: 0x7571, size: 0x8, addend: 0x0, symName: '__ZN4core3ptr181drop_in_place$LT$core..option..Option$LT$gimli..read..line..IncompleteLineProgram$LT$gimli..read..endian_slice..EndianSlice$LT$gimli..endianity..LittleEndian$GT$$C$usize$GT$$GT$$GT$17h7dac5bae1b057e29E', symObjAddr: 0x2418, symBinAddr: 0x100004E70, symSize: 0x94 }
  - { offsetInCU: 0x26C0, offset: 0x7825, size: 0x8, addend: 0x0, symName: '__ZN4core3ptr184drop_in_place$LT$core..result..Result$LT$addr2line..function..Functions$LT$gimli..read..endian_slice..EndianSlice$LT$gimli..endianity..LittleEndian$GT$$GT$$C$gimli..read..Error$GT$$GT$17hda73f027c32651d0E', symObjAddr: 0x24AC, symBinAddr: 0x100004F04, symSize: 0xD8 }
  - { offsetInCU: 0x2958, offset: 0x7ABD, size: 0x8, addend: 0x0, symName: '__ZN4core3ptr23drop_in_place$LT$u8$GT$17ha37615d3ba0fb58eE', symObjAddr: 0x259C, symBinAddr: 0x100004FDC, symSize: 0x4 }
  - { offsetInCU: 0x2972, offset: 0x7AD7, size: 0x8, addend: 0x0, symName: '__ZN4core3ptr24drop_in_place$LT$i32$GT$17h3a1a432c5bea1176E', symObjAddr: 0x25A0, symBinAddr: 0x100004FE0, symSize: 0x4 }
  - { offsetInCU: 0x298C, offset: 0x7AF1, size: 0x8, addend: 0x0, symName: '__ZN4core3ptr275drop_in_place$LT$gimli..read..line..LineRows$LT$gimli..read..endian_slice..EndianSlice$LT$gimli..endianity..LittleEndian$GT$$C$gimli..read..line..IncompleteLineProgram$LT$gimli..read..endian_slice..EndianSlice$LT$gimli..endianity..LittleEndian$GT$$C$usize$GT$$C$usize$GT$$GT$17hc7555b4797d07891E', symObjAddr: 0x25A4, symBinAddr: 0x100004FE4, symSize: 0x88 }
  - { offsetInCU: 0x2BA4, offset: 0x7D09, size: 0x8, addend: 0x0, symName: '__ZN4core3ptr29drop_in_place$LT$$LP$$RP$$GT$17h53d61a669d7065d1E', symObjAddr: 0x262C, symBinAddr: 0x10000506C, symSize: 0x4 }
  - { offsetInCU: 0x2BE5, offset: 0x7D4A, size: 0x8, addend: 0x0, symName: '__ZN4core3ptr383drop_in_place$LT$core..result..Result$LT$core..option..Option$LT$alloc..boxed..Box$LT$$LP$alloc..sync..Arc$LT$gimli..read..dwarf..Dwarf$LT$gimli..read..endian_slice..EndianSlice$LT$gimli..endianity..LittleEndian$GT$$GT$$GT$$C$gimli..read..dwarf..Unit$LT$gimli..read..endian_slice..EndianSlice$LT$gimli..endianity..LittleEndian$GT$$C$usize$GT$$RP$$GT$$GT$$C$gimli..read..Error$GT$$GT$17h924a44d042eed3bbE', symObjAddr: 0x2630, symBinAddr: 0x100005070, symSize: 0xF0 }
  - { offsetInCU: 0x2EB9, offset: 0x801E, size: 0x8, addend: 0x0, symName: '__ZN4core3ptr42drop_in_place$LT$alloc..string..String$GT$17hdab718b9e8207195E', symObjAddr: 0x2824, symBinAddr: 0x100005160, symSize: 0x18 }
  - { offsetInCU: 0x2ED0, offset: 0x8035, size: 0x8, addend: 0x0, symName: '__ZN4core3ptr42drop_in_place$LT$alloc..string..String$GT$17hdab718b9e8207195E', symObjAddr: 0x2824, symBinAddr: 0x100005160, symSize: 0x18 }
  - { offsetInCU: 0x2F7F, offset: 0x80E4, size: 0x8, addend: 0x0, symName: '__ZN4core3ptr42drop_in_place$LT$std..io..error..Error$GT$17h7cb3ba1894836a39E', symObjAddr: 0x283C, symBinAddr: 0x100005178, symSize: 0xB0 }
  - { offsetInCU: 0x31A6, offset: 0x830B, size: 0x8, addend: 0x0, symName: '__ZN4core3ptr44drop_in_place$LT$object..read..ObjectMap$GT$17h10e82132a2a5ab29E', symObjAddr: 0x28EC, symBinAddr: 0x100005228, symSize: 0x58 }
  - { offsetInCU: 0x32B4, offset: 0x8419, size: 0x8, addend: 0x0, symName: '__ZN4core3ptr44drop_in_place$LT$std..thread..PanicGuard$GT$17h111edfdf5723d60bE', symObjAddr: 0x29EC, symBinAddr: 0x100005280, symSize: 0x44 }
  - { offsetInCU: 0x32FA, offset: 0x845F, size: 0x8, addend: 0x0, symName: '__ZN4core3ptr46drop_in_place$LT$alloc..vec..Vec$LT$u8$GT$$GT$17hd89487f3c6c28be6E', symObjAddr: 0x2A30, symBinAddr: 0x1000052C4, symSize: 0x18 }
  - { offsetInCU: 0x3376, offset: 0x84DB, size: 0x8, addend: 0x0, symName: '__ZN4core3ptr46drop_in_place$LT$std..io..stdio..StdinLock$GT$17hbfc4a5de32413c9cE', symObjAddr: 0x2A48, symBinAddr: 0x1000052DC, symSize: 0x5C }
  - { offsetInCU: 0x34A9, offset: 0x860E, size: 0x8, addend: 0x0, symName: '__ZN4core3ptr47drop_in_place$LT$std..ffi..os_str..OsString$GT$17hab132c7e8d30120aE', symObjAddr: 0x2AC4, symBinAddr: 0x100005338, symSize: 0x18 }
  - { offsetInCU: 0x3541, offset: 0x86A6, size: 0x8, addend: 0x0, symName: '__ZN4core3ptr47drop_in_place$LT$std..io..stdio..StderrLock$GT$17h5e7773faa9ec2ac3E', symObjAddr: 0x2ADC, symBinAddr: 0x100005350, symSize: 0x3C }
  - { offsetInCU: 0x360E, offset: 0x8773, size: 0x8, addend: 0x0, symName: '__ZN4core3ptr47drop_in_place$LT$std..io..stdio..StdoutLock$GT$17h6776406fda1b0e22E', symObjAddr: 0x2B18, symBinAddr: 0x10000538C, symSize: 0x3C }
  - { offsetInCU: 0x36E8, offset: 0x884D, size: 0x8, addend: 0x0, symName: '__ZN4core3ptr60drop_in_place$LT$gimli..read..abbrev..AbbreviationsCache$GT$17h0ac4440bd7bc9e07E', symObjAddr: 0x2D4C, symBinAddr: 0x1000053C8, symSize: 0x44 }
  - { offsetInCU: 0x36FF, offset: 0x8864, size: 0x8, addend: 0x0, symName: '__ZN4core3ptr60drop_in_place$LT$gimli..read..abbrev..AbbreviationsCache$GT$17h0ac4440bd7bc9e07E', symObjAddr: 0x2D4C, symBinAddr: 0x1000053C8, symSize: 0x44 }
  - { offsetInCU: 0x3714, offset: 0x8879, size: 0x8, addend: 0x0, symName: '__ZN4core3ptr60drop_in_place$LT$gimli..read..abbrev..AbbreviationsCache$GT$17h0ac4440bd7bc9e07E', symObjAddr: 0x2D4C, symBinAddr: 0x1000053C8, symSize: 0x44 }
  - { offsetInCU: 0x3729, offset: 0x888E, size: 0x8, addend: 0x0, symName: '__ZN4core3ptr60drop_in_place$LT$gimli..read..abbrev..AbbreviationsCache$GT$17h0ac4440bd7bc9e07E', symObjAddr: 0x2D4C, symBinAddr: 0x1000053C8, symSize: 0x44 }
  - { offsetInCU: 0x373D, offset: 0x88A2, size: 0x8, addend: 0x0, symName: '__ZN4core3ptr60drop_in_place$LT$gimli..read..abbrev..AbbreviationsCache$GT$17h0ac4440bd7bc9e07E', symObjAddr: 0x2D4C, symBinAddr: 0x1000053C8, symSize: 0x44 }
  - { offsetInCU: 0x3858, offset: 0x89BD, size: 0x8, addend: 0x0, symName: '__ZN4core3ptr65drop_in_place$LT$alloc..vec..Vec$LT$alloc..string..String$GT$$GT$17h5fdc678b3b170adfE', symObjAddr: 0x2D90, symBinAddr: 0x10000540C, symSize: 0x84 }
  - { offsetInCU: 0x39A1, offset: 0x8B06, size: 0x8, addend: 0x0, symName: '__ZN4core3ptr65drop_in_place$LT$std..backtrace_rs..symbolize..gimli..Mapping$GT$17hb003077817757756E', symObjAddr: 0x2E14, symBinAddr: 0x100005490, symSize: 0x7C }
  - { offsetInCU: 0x3A43, offset: 0x8BA8, size: 0x8, addend: 0x0, symName: '__ZN4core3ptr67drop_in_place$LT$alloc..vec..Vec$LT$addr2line..LineSequence$GT$$GT$17h8260e422204e652eE', symObjAddr: 0x2E90, symBinAddr: 0x10000550C, symSize: 0x88 }
  - { offsetInCU: 0x3BE9, offset: 0x8D4E, size: 0x8, addend: 0x0, symName: '__ZN4core3ptr70drop_in_place$LT$std..backtrace_rs..symbolize..gimli..stash..Stash$GT$17hfdb84db50b2bc1d2E', symObjAddr: 0x2F9C, symBinAddr: 0x100005594, symSize: 0xC0 }
  - { offsetInCU: 0x3E81, offset: 0x8FE6, size: 0x8, addend: 0x0, symName: '__ZN4core3ptr71drop_in_place$LT$std..backtrace_rs..symbolize..gimli..macho..Object$GT$17h4b18140942186dd3E', symObjAddr: 0x305C, symBinAddr: 0x100005654, symSize: 0x14C }
  - { offsetInCU: 0x41AB, offset: 0x9310, size: 0x8, addend: 0x0, symName: '__ZN4core3ptr71drop_in_place$LT$std..sync..rwlock..RwLockReadGuard$LT$$LP$$RP$$GT$$GT$17hb6a9238693fd0b54E', symObjAddr: 0x3210, symBinAddr: 0x1000057A0, symSize: 0x34 }
  - { offsetInCU: 0x4282, offset: 0x93E7, size: 0x8, addend: 0x0, symName: '__ZN4core3ptr72drop_in_place$LT$core..option..Option$LT$object..read..ObjectMap$GT$$GT$17h4d01c9022d6b4c7dE', symObjAddr: 0x3244, symBinAddr: 0x1000057D4, symSize: 0x5C }
  - { offsetInCU: 0x43CE, offset: 0x9533, size: 0x8, addend: 0x0, symName: '__ZN4core3ptr77drop_in_place$LT$alloc..boxed..Box$LT$$u5b$alloc..string..String$u5d$$GT$$GT$17h2bbeda826bdce844E', symObjAddr: 0x33A4, symBinAddr: 0x100005830, symSize: 0x70 }
  - { offsetInCU: 0x43E5, offset: 0x954A, size: 0x8, addend: 0x0, symName: '__ZN4core3ptr77drop_in_place$LT$alloc..boxed..Box$LT$$u5b$alloc..string..String$u5d$$GT$$GT$17h2bbeda826bdce844E', symObjAddr: 0x33A4, symBinAddr: 0x100005830, symSize: 0x70 }
  - { offsetInCU: 0x44DE, offset: 0x9643, size: 0x8, addend: 0x0, symName: '__ZN4core3ptr77drop_in_place$LT$std..panicking..begin_panic_handler..FormatStringPayload$GT$17h38f91ee74fe47a2aE', symObjAddr: 0x3414, symBinAddr: 0x1000058A0, symSize: 0x24 }
  - { offsetInCU: 0x4582, offset: 0x96E7, size: 0x8, addend: 0x0, symName: '__ZN4core3ptr81drop_in_place$LT$core..result..Result$LT$$LP$$RP$$C$std..io..error..Error$GT$$GT$17hd97f6a9be225c834E', symObjAddr: 0x344C, symBinAddr: 0x1000058C4, symSize: 0x10 }
  - { offsetInCU: 0x45BC, offset: 0x9721, size: 0x8, addend: 0x0, symName: '__ZN4core3ptr86drop_in_place$LT$core..result..Result$LT$addr2line..Lines$C$gimli..read..Error$GT$$GT$17hfd2c9c26fd5e78b7E', symObjAddr: 0x34A8, symBinAddr: 0x1000058D4, symSize: 0xE4 }
  - { offsetInCU: 0x47EE, offset: 0x9953, size: 0x8, addend: 0x0, symName: '__ZN4core3ptr88drop_in_place$LT$std..io..Write..write_fmt..Adapter$LT$alloc..vec..Vec$LT$u8$GT$$GT$$GT$17hc01538ab8d7fe6feE', symObjAddr: 0x35B0, symBinAddr: 0x1000059B8, symSize: 0x10 }
  - { offsetInCU: 0x4805, offset: 0x996A, size: 0x8, addend: 0x0, symName: '__ZN4core3ptr88drop_in_place$LT$std..io..Write..write_fmt..Adapter$LT$alloc..vec..Vec$LT$u8$GT$$GT$$GT$17hc01538ab8d7fe6feE', symObjAddr: 0x35B0, symBinAddr: 0x1000059B8, symSize: 0x10 }
  - { offsetInCU: 0x4817, offset: 0x997C, size: 0x8, addend: 0x0, symName: '__ZN4core3ptr88drop_in_place$LT$std..sys_common..backtrace.._print_fmt..$u7b$$u7b$closure$u7d$$u7d$$GT$17h6596db8411e4d995E', symObjAddr: 0x35C0, symBinAddr: 0x1000059C8, symSize: 0x24 }
  - { offsetInCU: 0x4901, offset: 0x9A66, size: 0x8, addend: 0x0, symName: '__ZN4core3ptr90drop_in_place$LT$std..io..buffered..bufwriter..BufWriter$LT$W$GT$..flush_buf..BufGuard$GT$17heee208fefec81619E', symObjAddr: 0x35E4, symBinAddr: 0x1000059EC, symSize: 0x5C }
  - { offsetInCU: 0x4A68, offset: 0x9BCD, size: 0x8, addend: 0x0, symName: '__ZN4core3ptr98drop_in_place$LT$alloc..boxed..Box$LT$std..sys..unix..locks..pthread_mutex..AllocatedMutex$GT$$GT$17h962a48fe136f3a4aE', symObjAddr: 0x369C, symBinAddr: 0x100005A48, symSize: 0x2C }
  - { offsetInCU: 0x59B5, offset: 0xAB1A, size: 0x8, addend: 0x0, symName: '__ZN106_$LT$core..ops..range..Range$LT$usize$GT$$u20$as$u20$core..slice..index..SliceIndex$LT$$u5b$T$u5d$$GT$$GT$5index17h2401de29503c542eE', symObjAddr: 0x0, symBinAddr: 0x100003BE4, symSize: 0x40 }
  - { offsetInCU: 0x686D, offset: 0xB9D2, size: 0x8, addend: 0x0, symName: '__ZN4core5slice4sort12choose_pivot28_$u7b$$u7b$closure$u7d$$u7d$17h9f4d4597c5bcb6f3E', symObjAddr: 0x3824, symBinAddr: 0x100005A74, symSize: 0x180 }
  - { offsetInCU: 0x6C89, offset: 0xBDEE, size: 0x8, addend: 0x0, symName: __ZN4core5slice4sort14break_patterns17h27109cd9a88b36f9E, symObjAddr: 0x39A4, symBinAddr: 0x100034FA0, symSize: 0x164 }
  - { offsetInCU: 0x6D1F, offset: 0xBE84, size: 0x8, addend: 0x0, symName: __ZN4core5slice4sort14break_patterns17h442c937206edf251E, symObjAddr: 0x3B08, symBinAddr: 0x100035104, symSize: 0x164 }
  - { offsetInCU: 0x6DB5, offset: 0xBF1A, size: 0x8, addend: 0x0, symName: __ZN4core5slice4sort22partial_insertion_sort17h67575b4d1711f312E, symObjAddr: 0x3C6C, symBinAddr: 0x100035268, symSize: 0x500 }
  - { offsetInCU: 0x6E11, offset: 0xBF76, size: 0x8, addend: 0x0, symName: __ZN4core5slice4sort22partial_insertion_sort17hb6989df15b0f5f55E, symObjAddr: 0x416C, symBinAddr: 0x100035768, symSize: 0x614 }
  - { offsetInCU: 0x6EE4, offset: 0xC049, size: 0x8, addend: 0x0, symName: __ZN4core5slice4sort22partial_insertion_sort17hcd31d645d3cf0dadE, symObjAddr: 0x4780, symBinAddr: 0x100035D7C, symSize: 0x500 }
  - { offsetInCU: 0x6FA6, offset: 0xC10B, size: 0x8, addend: 0x0, symName: __ZN4core5slice4sort25insertion_sort_shift_left17h32ae9cae0ae116a7E, symObjAddr: 0x4C80, symBinAddr: 0x100005BF4, symSize: 0xE0 }
  - { offsetInCU: 0x70BF, offset: 0xC224, size: 0x8, addend: 0x0, symName: __ZN4core5slice4sort25insertion_sort_shift_left17h3bc3b9b5e5e358f1E, symObjAddr: 0x4D60, symBinAddr: 0x100005CD4, symSize: 0xF8 }
  - { offsetInCU: 0x71D8, offset: 0xC33D, size: 0x8, addend: 0x0, symName: __ZN4core5slice4sort25insertion_sort_shift_left17h550252aa797b5bc1E, symObjAddr: 0x4E58, symBinAddr: 0x100005DCC, symSize: 0xE8 }
  - { offsetInCU: 0x72F1, offset: 0xC456, size: 0x8, addend: 0x0, symName: __ZN4core5slice4sort25insertion_sort_shift_left17h803114dbcdebbf4cE, symObjAddr: 0x4F40, symBinAddr: 0x100005EB4, symSize: 0xE8 }
  - { offsetInCU: 0x740A, offset: 0xC56F, size: 0x8, addend: 0x0, symName: __ZN4core5slice4sort25insertion_sort_shift_left17h83475c6ab304c5adE, symObjAddr: 0x5028, symBinAddr: 0x100005F9C, symSize: 0xBC }
  - { offsetInCU: 0x7523, offset: 0xC688, size: 0x8, addend: 0x0, symName: __ZN4core5slice4sort25insertion_sort_shift_left17h871a4559d7cde0c8E, symObjAddr: 0x50E4, symBinAddr: 0x100006058, symSize: 0xD8 }
  - { offsetInCU: 0x763C, offset: 0xC7A1, size: 0x8, addend: 0x0, symName: __ZN4core5slice4sort25insertion_sort_shift_left17he028356ef5177fe5E, symObjAddr: 0x51BC, symBinAddr: 0x100006130, symSize: 0xF0 }
  - { offsetInCU: 0x77ED, offset: 0xC952, size: 0x8, addend: 0x0, symName: __ZN4core5slice4sort25insertion_sort_shift_left17he686cb697616f417E, symObjAddr: 0x52AC, symBinAddr: 0x100006220, symSize: 0x154 }
  - { offsetInCU: 0x7A06, offset: 0xCB6B, size: 0x8, addend: 0x0, symName: __ZN4core5slice4sort26insertion_sort_shift_right17h44b100ed9eab5c05E, symObjAddr: 0x5400, symBinAddr: 0x100006374, symSize: 0xD4 }
  - { offsetInCU: 0x7B6B, offset: 0xCCD0, size: 0x8, addend: 0x0, symName: __ZN4core5slice4sort26insertion_sort_shift_right17h94bb72a5f989d4c3E, symObjAddr: 0x54D4, symBinAddr: 0x100006448, symSize: 0xC0 }
  - { offsetInCU: 0x7CD0, offset: 0xCE35, size: 0x8, addend: 0x0, symName: __ZN4core5slice4sort26insertion_sort_shift_right17hc0c257358bd7cc5bE, symObjAddr: 0x5594, symBinAddr: 0x100006508, symSize: 0x124 }
  - { offsetInCU: 0x7EDC, offset: 0xD041, size: 0x8, addend: 0x0, symName: __ZN4core5slice4sort7recurse17h1b1308b583b8e03bE, symObjAddr: 0x56B8, symBinAddr: 0x10000662C, symSize: 0x924 }
  - { offsetInCU: 0x8B37, offset: 0xDC9C, size: 0x8, addend: 0x0, symName: __ZN4core5slice4sort7recurse17h2dfb32eb922195deE, symObjAddr: 0x5FDC, symBinAddr: 0x100006F50, symSize: 0x8F8 }
  - { offsetInCU: 0x9734, offset: 0xE899, size: 0x8, addend: 0x0, symName: __ZN4core5slice4sort7recurse17h79ddcc85d5fe7bddE, symObjAddr: 0x68D4, symBinAddr: 0x100007848, symSize: 0x970 }
  - { offsetInCU: 0xA35C, offset: 0xF4C1, size: 0x8, addend: 0x0, symName: '__ZN4core5slice4sort8heapsort28_$u7b$$u7b$closure$u7d$$u7d$17h0ce7e34798d678ddE', symObjAddr: 0x7770, symBinAddr: 0x1000081B8, symSize: 0x138 }
  - { offsetInCU: 0xA510, offset: 0xF675, size: 0x8, addend: 0x0, symName: __ZN4core5slice4sort8heapsort17h0196e79acbeb3045E, symObjAddr: 0x7244, symBinAddr: 0x10003627C, symSize: 0x22C }
  - { offsetInCU: 0xA7C0, offset: 0xF925, size: 0x8, addend: 0x0, symName: __ZN4core5slice4sort8heapsort17h541d2fddba91ef67E, symObjAddr: 0x7470, symBinAddr: 0x1000364A8, symSize: 0xD4 }
  - { offsetInCU: 0xA8E4, offset: 0xFA49, size: 0x8, addend: 0x0, symName: __ZN4core5slice4sort8heapsort17he470f05bc79811aeE, symObjAddr: 0x7544, symBinAddr: 0x10003657C, symSize: 0x22C }
  - { offsetInCU: 0xBAD8, offset: 0x10C3D, size: 0x8, addend: 0x0, symName: '__ZN36_$LT$T$u20$as$u20$core..any..Any$GT$7type_id17h60fbc218e495ed73E', symObjAddr: 0x1C8, symBinAddr: 0x100003C24, symSize: 0x24 }
  - { offsetInCU: 0xBAF1, offset: 0x10C56, size: 0x8, addend: 0x0, symName: '__ZN36_$LT$T$u20$as$u20$core..any..Any$GT$7type_id17h766b94c2328f3d7cE', symObjAddr: 0x1EC, symBinAddr: 0x100003C48, symSize: 0x24 }
  - { offsetInCU: 0xBB0A, offset: 0x10C6F, size: 0x8, addend: 0x0, symName: '__ZN36_$LT$T$u20$as$u20$core..any..Any$GT$7type_id17hcdb83dfb6d0b483dE', symObjAddr: 0x210, symBinAddr: 0x100003C6C, symSize: 0x24 }
  - { offsetInCU: 0xBBB2, offset: 0x10D17, size: 0x8, addend: 0x0, symName: '__ZN42_$LT$$RF$T$u20$as$u20$core..fmt..Debug$GT$3fmt17h5a0ede236d8437f7E', symObjAddr: 0x4C0, symBinAddr: 0x100003C90, symSize: 0x54 }
  - { offsetInCU: 0xBBF8, offset: 0x10D5D, size: 0x8, addend: 0x0, symName: '__ZN42_$LT$$RF$T$u20$as$u20$core..fmt..Debug$GT$3fmt17h7397a76eaaa8774dE', symObjAddr: 0x6C4, symBinAddr: 0x100003CE4, symSize: 0x1C }
  - { offsetInCU: 0xBC3D, offset: 0x10DA2, size: 0x8, addend: 0x0, symName: '__ZN42_$LT$$RF$T$u20$as$u20$core..fmt..Debug$GT$3fmt17ha1aa3c439f0d05d2E', symObjAddr: 0x82C, symBinAddr: 0x100003D00, symSize: 0x14 }
  - { offsetInCU: 0xBC6D, offset: 0x10DD2, size: 0x8, addend: 0x0, symName: '__ZN42_$LT$$RF$T$u20$as$u20$core..fmt..Debug$GT$3fmt17hb087f418ecca8b78E', symObjAddr: 0x8EC, symBinAddr: 0x100003D14, symSize: 0x10 }
  - { offsetInCU: 0xBC80, offset: 0x10DE5, size: 0x8, addend: 0x0, symName: '__ZN42_$LT$$RF$T$u20$as$u20$core..fmt..Debug$GT$3fmt17hba34479c526128c9E', symObjAddr: 0x934, symBinAddr: 0x100003D24, symSize: 0x10 }
  - { offsetInCU: 0xBCB0, offset: 0x10E15, size: 0x8, addend: 0x0, symName: '__ZN42_$LT$$RF$T$u20$as$u20$core..fmt..Debug$GT$3fmt17hc483bb7056f523b7E', symObjAddr: 0xA7C, symBinAddr: 0x100003D34, symSize: 0x1C }
  - { offsetInCU: 0xBCF5, offset: 0x10E5A, size: 0x8, addend: 0x0, symName: '__ZN42_$LT$$RF$T$u20$as$u20$core..fmt..Debug$GT$3fmt17hc903c19c1c7180ccE', symObjAddr: 0xB10, symBinAddr: 0x100003D50, symSize: 0x78 }
  - { offsetInCU: 0xBDDE, offset: 0x10F43, size: 0x8, addend: 0x0, symName: '__ZN42_$LT$$RF$T$u20$as$u20$core..fmt..Debug$GT$3fmt17hd9df73138ed7e896E', symObjAddr: 0xBA4, symBinAddr: 0x100003DC8, symSize: 0x1C }
  - { offsetInCU: 0xBE81, offset: 0x10FE6, size: 0x8, addend: 0x0, symName: '__ZN4core3fmt3num50_$LT$impl$u20$core..fmt..Debug$u20$for$u20$i32$GT$3fmt17h67b1cefff1b3438fE', symObjAddr: 0xD5C, symBinAddr: 0x100003DFC, symSize: 0x18 }
  - { offsetInCU: 0xBE98, offset: 0x10FFD, size: 0x8, addend: 0x0, symName: '__ZN4core3fmt3num50_$LT$impl$u20$core..fmt..Debug$u20$for$u20$i32$GT$3fmt17h67b1cefff1b3438fE', symObjAddr: 0xD5C, symBinAddr: 0x100003DFC, symSize: 0x18 }
  - { offsetInCU: 0xBEBB, offset: 0x11020, size: 0x8, addend: 0x0, symName: '__ZN4core3fmt3num52_$LT$impl$u20$core..fmt..Debug$u20$for$u20$usize$GT$3fmt17h60e009952a799d6fE', symObjAddr: 0xDA4, symBinAddr: 0x100003E14, symSize: 0x18 }
  - { offsetInCU: 0xBED2, offset: 0x11037, size: 0x8, addend: 0x0, symName: '__ZN4core3fmt3num52_$LT$impl$u20$core..fmt..Debug$u20$for$u20$usize$GT$3fmt17h60e009952a799d6fE', symObjAddr: 0xDA4, symBinAddr: 0x100003E14, symSize: 0x18 }
  - { offsetInCU: 0xBF3B, offset: 0x110A0, size: 0x8, addend: 0x0, symName: '__ZN44_$LT$$RF$T$u20$as$u20$core..fmt..Display$GT$3fmt17h030c872707596abbE', symObjAddr: 0xD18, symBinAddr: 0x100003DE4, symSize: 0x10 }
  - { offsetInCU: 0xBF55, offset: 0x110BA, size: 0x8, addend: 0x0, symName: '__ZN44_$LT$$RF$T$u20$as$u20$core..fmt..Display$GT$3fmt17h72b7d6400a80aa35E', symObjAddr: 0xD28, symBinAddr: 0x100003DF4, symSize: 0x8 }
  - { offsetInCU: 0xBF75, offset: 0x110DA, size: 0x8, addend: 0x0, symName: __ZN4core3fmt5Write10write_char17h19bf88589eecd14eE, symObjAddr: 0xDBC, symBinAddr: 0x100003E2C, symSize: 0xC8 }
  - { offsetInCU: 0xBFC7, offset: 0x1112C, size: 0x8, addend: 0x0, symName: __ZN4core3fmt5Write10write_char17h48cd4df4221a02afE, symObjAddr: 0xE84, symBinAddr: 0x100003EF4, symSize: 0x11C }
  - { offsetInCU: 0xC10E, offset: 0x11273, size: 0x8, addend: 0x0, symName: __ZN4core3fmt5Write10write_char17h8efbee1823c9dabbE, symObjAddr: 0xFA0, symBinAddr: 0x100004010, symSize: 0x140 }
  - { offsetInCU: 0xC172, offset: 0x112D7, size: 0x8, addend: 0x0, symName: __ZN4core3fmt5Write10write_char17he235bdd84508f344E, symObjAddr: 0x10E0, symBinAddr: 0x100004150, symSize: 0x150 }
  - { offsetInCU: 0xC45F, offset: 0x115C4, size: 0x8, addend: 0x0, symName: __ZN4core3fmt5Write9write_fmt17h452ecd3871db07c3E, symObjAddr: 0x12F8, symBinAddr: 0x1000042A0, symSize: 0x10 }
  - { offsetInCU: 0xC48D, offset: 0x115F2, size: 0x8, addend: 0x0, symName: __ZN4core3fmt5Write9write_fmt17h9e88f726553f7d3cE, symObjAddr: 0x1308, symBinAddr: 0x1000042B0, symSize: 0x10 }
  - { offsetInCU: 0xC4BB, offset: 0x11620, size: 0x8, addend: 0x0, symName: __ZN4core3fmt5Write9write_fmt17hd42ebaa9643a97b6E, symObjAddr: 0x1328, symBinAddr: 0x1000042C0, symSize: 0x10 }
  - { offsetInCU: 0xC4E9, offset: 0x1164E, size: 0x8, addend: 0x0, symName: __ZN4core3fmt5Write9write_fmt17he78c96d219c9c4f6E, symObjAddr: 0x1338, symBinAddr: 0x1000042D0, symSize: 0x10 }
  - { offsetInCU: 0xC517, offset: 0x1167C, size: 0x8, addend: 0x0, symName: __ZN4core3fmt5Write9write_fmt17heb12a4f0c52cfeb9E, symObjAddr: 0x1348, symBinAddr: 0x1000042E0, symSize: 0x10 }
  - { offsetInCU: 0xC6A1, offset: 0x11806, size: 0x8, addend: 0x0, symName: '__ZN50_$LT$$BP$mut$u20$T$u20$as$u20$core..fmt..Debug$GT$3fmt17h8500d54cf930c357E', symObjAddr: 0x7B38, symBinAddr: 0x10000848C, symSize: 0x8 }
  - { offsetInCU: 0xC741, offset: 0x118A6, size: 0x8, addend: 0x0, symName: '__ZN55_$LT$$RF$str$u20$as$u20$core..str..pattern..Pattern$GT$15is_contained_in17he2afdd4a9469e040E', symObjAddr: 0x7BBC, symBinAddr: 0x100008494, symSize: 0x530 }
  - { offsetInCU: 0xDD22, offset: 0x12E87, size: 0x8, addend: 0x0, symName: '__ZN4core3ops8function6FnOnce40call_once$u7b$$u7b$vtable.shim$u7d$$u7d$17h40b86d55c10373d3E', symObjAddr: 0x1380, symBinAddr: 0x1000042F0, symSize: 0x4 }
  - { offsetInCU: 0xDD3F, offset: 0x12EA4, size: 0x8, addend: 0x0, symName: '__ZN4core3ops8function6FnOnce40call_once$u7b$$u7b$vtable.shim$u7d$$u7d$17h40b86d55c10373d3E', symObjAddr: 0x1380, symBinAddr: 0x1000042F0, symSize: 0x4 }
  - { offsetInCU: 0xDD5C, offset: 0x12EC1, size: 0x8, addend: 0x0, symName: '__ZN4core3ops8function6FnOnce40call_once$u7b$$u7b$vtable.shim$u7d$$u7d$17h46da81e79618844eE', symObjAddr: 0x138C, symBinAddr: 0x1000042F4, symSize: 0x4 }
  - { offsetInCU: 0xDD79, offset: 0x12EDE, size: 0x8, addend: 0x0, symName: '__ZN4core3ops8function6FnOnce40call_once$u7b$$u7b$vtable.shim$u7d$$u7d$17h46da81e79618844eE', symObjAddr: 0x138C, symBinAddr: 0x1000042F4, symSize: 0x4 }
  - { offsetInCU: 0xDD96, offset: 0x12EFB, size: 0x8, addend: 0x0, symName: '__ZN4core3ops8function6FnOnce40call_once$u7b$$u7b$vtable.shim$u7d$$u7d$17h7e6e5ab3de115bfdE', symObjAddr: 0x14DC, symBinAddr: 0x1000042F8, symSize: 0x28 }
  - { offsetInCU: 0xDDD0, offset: 0x12F35, size: 0x8, addend: 0x0, symName: '__ZN4core3ops8function6FnOnce40call_once$u7b$$u7b$vtable.shim$u7d$$u7d$17h8fcdf51f9c8bdb03E', symObjAddr: 0x1504, symBinAddr: 0x100004320, symSize: 0xB0 }
  - { offsetInCU: 0xDFDE, offset: 0x13143, size: 0x8, addend: 0x0, symName: '__ZN4core3ops8function6FnOnce40call_once$u7b$$u7b$vtable.shim$u7d$$u7d$17h9b2c5108bcf4e9a2E', symObjAddr: 0x15B4, symBinAddr: 0x1000043D0, symSize: 0x50 }
  - { offsetInCU: 0xE0D3, offset: 0x13238, size: 0x8, addend: 0x0, symName: '__ZN4core3ops8function6FnOnce40call_once$u7b$$u7b$vtable.shim$u7d$$u7d$17ha7cd38d75ea271d7E', symObjAddr: 0x1654, symBinAddr: 0x100004420, symSize: 0xC }
  - { offsetInCU: 0xE122, offset: 0x13287, size: 0x8, addend: 0x0, symName: '__ZN4core3ops8function6FnOnce40call_once$u7b$$u7b$vtable.shim$u7d$$u7d$17hbad6d1f2a12b44d5E', symObjAddr: 0x1660, symBinAddr: 0x10000442C, symSize: 0xC }
  - { offsetInCU: 0xE171, offset: 0x132D6, size: 0x8, addend: 0x0, symName: '__ZN4core3ops8function6FnOnce40call_once$u7b$$u7b$vtable.shim$u7d$$u7d$17hff35c11bf6b82b82E', symObjAddr: 0x166C, symBinAddr: 0x100004438, symSize: 0x84 }
  - { offsetInCU: 0xE2F4, offset: 0x13459, size: 0x8, addend: 0x0, symName: __ZN4core3ops8function6FnOnce9call_once17hdb2b654211a114c7E, symObjAddr: 0x16F0, symBinAddr: 0x1000044BC, symSize: 0xC }
  - { offsetInCU: 0xE446, offset: 0x135AB, size: 0x8, addend: 0x0, symName: '__ZN4core6result19Result$LT$T$C$E$GT$3map17hab0fdb44c338f3ebE', symObjAddr: 0x78A8, symBinAddr: 0x1000082F0, symSize: 0x19C }
  - { offsetInCU: 0xF321, offset: 0x14486, size: 0x8, addend: 0x0, symName: '__ZN70_$LT$core..result..Result$LT$T$C$E$GT$$u20$as$u20$core..fmt..Debug$GT$3fmt17h45ace3af80c37051E', symObjAddr: 0x14840, symBinAddr: 0x1000116CC, symSize: 0x6C }
  - { offsetInCU: 0x109F6, offset: 0x15B5B, size: 0x8, addend: 0x0, symName: __ZN4core9panicking13assert_failed17h15d813af0c7bd6f9E, symObjAddr: 0x7A84, symBinAddr: 0x1000367A8, symSize: 0x40 }
  - { offsetInCU: 0x10A11, offset: 0x15B76, size: 0x8, addend: 0x0, symName: __ZN4core9panicking13assert_failed17hff03f1738d3302f6E, symObjAddr: 0x7B08, symBinAddr: 0x1000367E8, symSize: 0x30 }
  - { offsetInCU: 0x10EE0, offset: 0x16045, size: 0x8, addend: 0x0, symName: '__ZN5alloc11collections5btree3map25IntoIter$LT$K$C$V$C$A$GT$10dying_next17h1b569a9d8c9f83c4E', symObjAddr: 0x9A40, symBinAddr: 0x100008B88, symSize: 0x238 }
  - { offsetInCU: 0x1146E, offset: 0x165D3, size: 0x8, addend: 0x0, symName: '__ZN5alloc7raw_vec19RawVec$LT$T$C$A$GT$16reserve_for_push17h08dd14cf28410b55E', symObjAddr: 0xB7DC, symBinAddr: 0x1000091E0, symSize: 0xC0 }
  - { offsetInCU: 0x115DA, offset: 0x1673F, size: 0x8, addend: 0x0, symName: '__ZN5alloc7raw_vec19RawVec$LT$T$C$A$GT$16reserve_for_push17h16cefb9a3e15d206E', symObjAddr: 0xB89C, symBinAddr: 0x1000092A0, symSize: 0xD0 }
  - { offsetInCU: 0x1171E, offset: 0x16883, size: 0x8, addend: 0x0, symName: '__ZN5alloc7raw_vec19RawVec$LT$T$C$A$GT$16reserve_for_push17h295c9620da38721fE', symObjAddr: 0xB96C, symBinAddr: 0x100009370, symSize: 0xC0 }
  - { offsetInCU: 0x1188A, offset: 0x169EF, size: 0x8, addend: 0x0, symName: '__ZN5alloc7raw_vec19RawVec$LT$T$C$A$GT$16reserve_for_push17h4be643b1a1fd8bf3E', symObjAddr: 0xBA2C, symBinAddr: 0x100009430, symSize: 0xD4 }
  - { offsetInCU: 0x11A02, offset: 0x16B67, size: 0x8, addend: 0x0, symName: '__ZN5alloc7raw_vec19RawVec$LT$T$C$A$GT$16reserve_for_push17h5ae508f8469a6bb6E', symObjAddr: 0xBB00, symBinAddr: 0x100009504, symSize: 0xC0 }
  - { offsetInCU: 0x11B6E, offset: 0x16CD3, size: 0x8, addend: 0x0, symName: '__ZN5alloc7raw_vec19RawVec$LT$T$C$A$GT$16reserve_for_push17h660cf263a5b3dfd4E', symObjAddr: 0xBBC0, symBinAddr: 0x1000095C4, symSize: 0xC0 }
  - { offsetInCU: 0x11CDA, offset: 0x16E3F, size: 0x8, addend: 0x0, symName: '__ZN5alloc7raw_vec19RawVec$LT$T$C$A$GT$16reserve_for_push17h7fc3435ec9e58d20E', symObjAddr: 0xBC80, symBinAddr: 0x100009684, symSize: 0xC0 }
  - { offsetInCU: 0x11E46, offset: 0x16FAB, size: 0x8, addend: 0x0, symName: '__ZN5alloc7raw_vec19RawVec$LT$T$C$A$GT$16reserve_for_push17h89aa817b03d6231aE', symObjAddr: 0xBD40, symBinAddr: 0x100009744, symSize: 0xB8 }
  - { offsetInCU: 0x11FA9, offset: 0x1710E, size: 0x8, addend: 0x0, symName: '__ZN5alloc7raw_vec19RawVec$LT$T$C$A$GT$16reserve_for_push17h9b01fe520ca219e8E', symObjAddr: 0xBECC, symBinAddr: 0x1000097FC, symSize: 0xD4 }
  - { offsetInCU: 0x120F9, offset: 0x1725E, size: 0x8, addend: 0x0, symName: '__ZN5alloc7raw_vec19RawVec$LT$T$C$A$GT$16reserve_for_push17h9d9ed0a715c304a4E', symObjAddr: 0xBFA0, symBinAddr: 0x1000098D0, symSize: 0xD0 }
  - { offsetInCU: 0x1223D, offset: 0x173A2, size: 0x8, addend: 0x0, symName: '__ZN5alloc7raw_vec19RawVec$LT$T$C$A$GT$16reserve_for_push17hbcfef7b22fbec7d3E', symObjAddr: 0xC070, symBinAddr: 0x1000099A0, symSize: 0xD0 }
  - { offsetInCU: 0x12381, offset: 0x174E6, size: 0x8, addend: 0x0, symName: '__ZN5alloc7raw_vec19RawVec$LT$T$C$A$GT$16reserve_for_push17hebea7765acfbbc44E', symObjAddr: 0xC140, symBinAddr: 0x100009A70, symSize: 0xD4 }
  - { offsetInCU: 0x12C55, offset: 0x17DBA, size: 0x8, addend: 0x0, symName: __ZN5alloc7raw_vec11finish_grow17h03379e76e9d1d0c5E, symObjAddr: 0xB738, symBinAddr: 0x10000913C, symSize: 0xA4 }
  - { offsetInCU: 0x12CEE, offset: 0x17E53, size: 0x8, addend: 0x0, symName: '__ZN5alloc7raw_vec19RawVec$LT$T$C$A$GT$7reserve21do_reserve_and_handle17h45d1f47213bff8d2E', symObjAddr: 0xC2D4, symBinAddr: 0x100036818, symSize: 0xD0 }
  - { offsetInCU: 0x12E18, offset: 0x17F7D, size: 0x8, addend: 0x0, symName: '__ZN5alloc7raw_vec19RawVec$LT$T$C$A$GT$7reserve21do_reserve_and_handle17h5ef84f9b0409d857E', symObjAddr: 0xC3A4, symBinAddr: 0x1000368E8, symSize: 0xB8 }
  - { offsetInCU: 0x12F55, offset: 0x180BA, size: 0x8, addend: 0x0, symName: '__ZN5alloc7raw_vec19RawVec$LT$T$C$A$GT$7reserve21do_reserve_and_handle17h9af7d1a1ba79170dE', symObjAddr: 0xC45C, symBinAddr: 0x1000369A0, symSize: 0xD4 }
  - { offsetInCU: 0x130A7, offset: 0x1820C, size: 0x8, addend: 0x0, symName: '__ZN5alloc7raw_vec19RawVec$LT$T$C$A$GT$7reserve21do_reserve_and_handle17ha4986f57d6fe77ebE', symObjAddr: 0xC530, symBinAddr: 0x100036A74, symSize: 0xD4 }
  - { offsetInCU: 0x131F9, offset: 0x1835E, size: 0x8, addend: 0x0, symName: '__ZN5alloc7raw_vec19RawVec$LT$T$C$A$GT$7reserve21do_reserve_and_handle17hf9a5d51291f5b526E', symObjAddr: 0xC604, symBinAddr: 0x100036B48, symSize: 0xD4 }
  - { offsetInCU: 0x1408A, offset: 0x191EF, size: 0x8, addend: 0x0, symName: '__ZN58_$LT$alloc..string..String$u20$as$u20$core..fmt..Debug$GT$3fmt17hfbf707da31c423dfE', symObjAddr: 0x80EC, symBinAddr: 0x1000089C4, symSize: 0x14 }
  - { offsetInCU: 0x14156, offset: 0x192BB, size: 0x8, addend: 0x0, symName: '__ZN58_$LT$alloc..string..String$u20$as$u20$core..fmt..Write$GT$10write_char17h64261c798035e03aE', symObjAddr: 0x8100, symBinAddr: 0x1000089D8, symSize: 0x13C }
  - { offsetInCU: 0x14313, offset: 0x19478, size: 0x8, addend: 0x0, symName: '__ZN58_$LT$alloc..string..String$u20$as$u20$core..fmt..Write$GT$9write_str17h90910fbd308baf4dE', symObjAddr: 0x823C, symBinAddr: 0x100008B14, symSize: 0x74 }
  - { offsetInCU: 0x1441C, offset: 0x19581, size: 0x8, addend: 0x0, symName: '__ZN60_$LT$alloc..string..String$u20$as$u20$core..fmt..Display$GT$3fmt17h9702cdc28cbb2518E', symObjAddr: 0x13DD8, symBinAddr: 0x100011244, symSize: 0x14 }
  - { offsetInCU: 0x14890, offset: 0x199F5, size: 0x8, addend: 0x0, symName: '__ZN5alloc4sync16Arc$LT$T$C$A$GT$9drop_slow17h0ad2fbc5c2cecb8eE', symObjAddr: 0xB3BC, symBinAddr: 0x100008DC0, symSize: 0xC8 }
  - { offsetInCU: 0x14B0D, offset: 0x19C72, size: 0x8, addend: 0x0, symName: '__ZN5alloc4sync16Arc$LT$T$C$A$GT$9drop_slow17h6d56ec557af1157cE', symObjAddr: 0xB484, symBinAddr: 0x100008E88, symSize: 0xD0 }
  - { offsetInCU: 0x14E07, offset: 0x19F6C, size: 0x8, addend: 0x0, symName: '__ZN5alloc4sync16Arc$LT$T$C$A$GT$9drop_slow17h7f16c94d1e3e76f0E', symObjAddr: 0xB554, symBinAddr: 0x100008F58, symSize: 0xA8 }
  - { offsetInCU: 0x15057, offset: 0x1A1BC, size: 0x8, addend: 0x0, symName: '__ZN5alloc4sync16Arc$LT$T$C$A$GT$9drop_slow17h913aa5d6c2e26429E', symObjAddr: 0xB5FC, symBinAddr: 0x100009000, symSize: 0x34 }
  - { offsetInCU: 0x15155, offset: 0x1A2BA, size: 0x8, addend: 0x0, symName: '__ZN5alloc4sync16Arc$LT$T$C$A$GT$9drop_slow17h926bb62081cf3ae2E', symObjAddr: 0xB630, symBinAddr: 0x100009034, symSize: 0x78 }
  - { offsetInCU: 0x15340, offset: 0x1A4A5, size: 0x8, addend: 0x0, symName: '__ZN5alloc4sync16Arc$LT$T$C$A$GT$9drop_slow17hb469358bf68d2775E', symObjAddr: 0xB6A8, symBinAddr: 0x1000090AC, symSize: 0x90 }
  - { offsetInCU: 0x15C91, offset: 0x1ADF6, size: 0x8, addend: 0x0, symName: __ZN3std4path4Path13_strip_prefix17he99ea855ef68d633E, symObjAddr: 0x2E9A4, symBinAddr: 0x10001BB18, symSize: 0x1E8 }
  - { offsetInCU: 0x15DC2, offset: 0x1AF27, size: 0x8, addend: 0x0, symName: __ZN3std4path4Path5_join17h789fe9c13681d85aE, symObjAddr: 0x2F170, symBinAddr: 0x10001BD00, symSize: 0x194 }
  - { offsetInCU: 0x162FB, offset: 0x1B460, size: 0x8, addend: 0x0, symName: __ZN3std4path10Components15len_before_body17h30b79abe1f1426f5E, symObjAddr: 0x2D350, symBinAddr: 0x10001AFF4, symSize: 0x1AC }
  - { offsetInCU: 0x16319, offset: 0x1B47E, size: 0x8, addend: 0x0, symName: __ZN3std4path10Components15len_before_body17h30b79abe1f1426f5E, symObjAddr: 0x2D350, symBinAddr: 0x10001AFF4, symSize: 0x1AC }
  - { offsetInCU: 0x1651A, offset: 0x1B67F, size: 0x8, addend: 0x0, symName: __ZN3std4path10Components7as_path17h4135f3a363f55fc6E, symObjAddr: 0x2D4FC, symBinAddr: 0x10001B1A0, symSize: 0x1D4 }
  - { offsetInCU: 0x16688, offset: 0x1B7ED, size: 0x8, addend: 0x0, symName: __ZN3std4path10Components25parse_next_component_back17hf49cda7a5d6b86b8E, symObjAddr: 0x2D6D0, symBinAddr: 0x10001B374, symSize: 0x120 }
  - { offsetInCU: 0x167AE, offset: 0x1B913, size: 0x8, addend: 0x0, symName: '__ZN80_$LT$std..path..Components$u20$as$u20$core..iter..traits..iterator..Iterator$GT$4next17h49bd3738c1e686caE', symObjAddr: 0x2D988, symBinAddr: 0x10001B494, symSize: 0x350 }
  - { offsetInCU: 0x169ED, offset: 0x1BB52, size: 0x8, addend: 0x0, symName: '__ZN95_$LT$std..path..Components$u20$as$u20$core..iter..traits..double_ended..DoubleEndedIterator$GT$9next_back17hed0a536fc9c1daf0E', symObjAddr: 0x2DCD8, symBinAddr: 0x10001B7E4, symSize: 0x308 }
  - { offsetInCU: 0x16B48, offset: 0x1BCAD, size: 0x8, addend: 0x0, symName: '__ZN55_$LT$std..path..PathBuf$u20$as$u20$core..fmt..Debug$GT$3fmt17hba67c8809d0a52fcE', symObjAddr: 0x2E868, symBinAddr: 0x10001BAEC, symSize: 0x0 }
  - { offsetInCU: 0x16CC8, offset: 0x1BE2D, size: 0x8, addend: 0x0, symName: '__ZN61_$LT$std..path..Component$u20$as$u20$core..cmp..PartialEq$GT$2eq17hac25172c852aaf65E', symObjAddr: 0x37958, symBinAddr: 0x10001E350, symSize: 0x10C }
  - { offsetInCU: 0x16DEB, offset: 0x1BF50, size: 0x8, addend: 0x0, symName: '__ZN68_$LT$std..sys..unix..os_str..Slice$u20$as$u20$core..fmt..Display$GT$3fmt17h8a70bcfd08a7e5e5E', symObjAddr: 0x3BF04, symBinAddr: 0x10001F194, symSize: 0xA4 }
  - { offsetInCU: 0x16E57, offset: 0x1BFBC, size: 0x8, addend: 0x0, symName: __ZN3std3sys4unix2fs4File6open_c17h058e7903409f6093E, symObjAddr: 0x3925C, symBinAddr: 0x10001EDA4, symSize: 0x19C }
  - { offsetInCU: 0x16FE2, offset: 0x1C147, size: 0x8, addend: 0x0, symName: __ZN3std3sys4unix2fs7ReadDir3new17hfb4293c3168daa97E, symObjAddr: 0x38E10, symBinAddr: 0x10001EAFC, symSize: 0xB4 }
  - { offsetInCU: 0x17207, offset: 0x1C36C, size: 0x8, addend: 0x0, symName: '__ZN86_$LT$std..sys..unix..fs..ReadDir$u20$as$u20$core..iter..traits..iterator..Iterator$GT$4next17hb25b0c32f6b2ab62E', symObjAddr: 0x38EF4, symBinAddr: 0x10001EBB0, symSize: 0x138 }
  - { offsetInCU: 0x173E3, offset: 0x1C548, size: 0x8, addend: 0x0, symName: '__ZN65_$LT$std..sys..unix..fs..Dir$u20$as$u20$core..ops..drop..Drop$GT$4drop17h4c2a1c083a18ba00E', symObjAddr: 0x3902C, symBinAddr: 0x10001ECE8, symSize: 0xBC }
  - { offsetInCU: 0x174B0, offset: 0x1C615, size: 0x8, addend: 0x0, symName: __ZN3std3sys4unix2fs7readdir17h365e993b28f74c34E, symObjAddr: 0x397A8, symBinAddr: 0x10001EF40, symSize: 0x144 }
  - { offsetInCU: 0x177B7, offset: 0x1C91C, size: 0x8, addend: 0x0, symName: '__ZN108_$LT$std..sys..unix..locks..pthread_mutex..AllocatedMutex$u20$as$u20$std..sys_common..lazy_box..LazyInit$GT$4init17h1434611615af43edE', symObjAddr: 0x3F7D8, symBinAddr: 0x10001F95C, symSize: 0x1C8 }
  - { offsetInCU: 0x1799B, offset: 0x1CB00, size: 0x8, addend: 0x0, symName: __ZN3std3sys4unix5locks14pthread_rwlock6RwLock4read17h2cd4e05453e8da3eE, symObjAddr: 0x3FB7C, symBinAddr: 0x10001FB24, symSize: 0x124 }
  - { offsetInCU: 0x17B70, offset: 0x1CCD5, size: 0x8, addend: 0x0, symName: '__ZN3std3sys4unix2os6getenv28_$u7b$$u7b$closure$u7d$$u7d$17h59ffac96a5785423E', symObjAddr: 0x3BAF0, symBinAddr: 0x10001F084, symSize: 0x110 }
  - { offsetInCU: 0x17E20, offset: 0x1CF85, size: 0x8, addend: 0x0, symName: __ZN3std3sys4unix14stack_overflow3imp14signal_handler17h0ed28e877024bd3eE, symObjAddr: 0x3E7AC, symBinAddr: 0x10001F238, symSize: 0x260 }
  - { offsetInCU: 0x18267, offset: 0x1D3CC, size: 0x8, addend: 0x0, symName: __ZN3std3sys4unix14stack_overflow3imp12make_handler17h3334ba4468383695E, symObjAddr: 0x3EA0C, symBinAddr: 0x10001F498, symSize: 0x198 }
  - { offsetInCU: 0x18574, offset: 0x1D6D9, size: 0x8, addend: 0x0, symName: '__ZN64_$LT$std..sys..unix..stdio..Stderr$u20$as$u20$std..io..Write$GT$5write17he1332619da92bb8aE', symObjAddr: 0x3EDB4, symBinAddr: 0x10001F630, symSize: 0x60 }
  - { offsetInCU: 0x18657, offset: 0x1D7BC, size: 0x8, addend: 0x0, symName: '__ZN64_$LT$std..sys..unix..stdio..Stderr$u20$as$u20$std..io..Write$GT$14write_vectored17h2137ff0930adee95E', symObjAddr: 0x3EE14, symBinAddr: 0x10001F690, symSize: 0x60 }
  - { offsetInCU: 0x1873A, offset: 0x1D89F, size: 0x8, addend: 0x0, symName: '__ZN64_$LT$std..sys..unix..stdio..Stderr$u20$as$u20$std..io..Write$GT$17is_write_vectored17hce1ac157e73d7fcaE', symObjAddr: 0x3EE74, symBinAddr: 0x10001F6F0, symSize: 0x8 }
  - { offsetInCU: 0x18753, offset: 0x1D8B8, size: 0x8, addend: 0x0, symName: '__ZN64_$LT$std..sys..unix..stdio..Stderr$u20$as$u20$std..io..Write$GT$5flush17h954cf51e23e63cafE', symObjAddr: 0x3EE7C, symBinAddr: 0x10001F6F8, symSize: 0x8 }
  - { offsetInCU: 0x18804, offset: 0x1D969, size: 0x8, addend: 0x0, symName: __ZN3std3sys4unix17thread_local_dtor13register_dtor17h252b8705c465d5a8E, symObjAddr: 0x3F2F4, symBinAddr: 0x10001F700, symSize: 0x140 }
  - { offsetInCU: 0x18AFC, offset: 0x1DC61, size: 0x8, addend: 0x0, symName: __ZN3std3sys4unix17thread_local_dtor13register_dtor9run_dtors17h03de15b055dc2262E, symObjAddr: 0x3F434, symBinAddr: 0x10001F840, symSize: 0xEC }
  - { offsetInCU: 0x18E2D, offset: 0x1DF92, size: 0x8, addend: 0x0, symName: __ZN3std3sys4unix17decode_error_kind17h328e0f452a29f224E, symObjAddr: 0x3F768, symBinAddr: 0x10001F92C, symSize: 0x24 }
  - { offsetInCU: 0x18E46, offset: 0x1DFAB, size: 0x8, addend: 0x0, symName: __ZN3std3sys4unix14abort_internal17hc42a9a0e5d1d8122E, symObjAddr: 0x3F78C, symBinAddr: 0x10001F950, symSize: 0xC }
  - { offsetInCU: 0x18E97, offset: 0x1DFFC, size: 0x8, addend: 0x0, symName: '__ZN3std3sys11personality3gcc14find_eh_action28_$u7b$$u7b$closure$u7d$$u7d$17h49f80fba933a221bE', symObjAddr: 0x37CF8, symBinAddr: 0x10001E598, symSize: 0xC }
  - { offsetInCU: 0x18EAA, offset: 0x1E00F, size: 0x8, addend: 0x0, symName: '__ZN3std3sys11personality3gcc14find_eh_action28_$u7b$$u7b$closure$u7d$$u7d$17h28c409c49d68c5a7E', symObjAddr: 0x37D04, symBinAddr: 0x10001E5A4, symSize: 0xC }
  - { offsetInCU: 0x18ED7, offset: 0x1E03C, size: 0x8, addend: 0x0, symName: _rust_eh_personality, symObjAddr: 0x37D10, symBinAddr: 0x10001E5B0, symSize: 0x54C }
  - { offsetInCU: 0x193A8, offset: 0x1E50D, size: 0x8, addend: 0x0, symName: __ZN3std3sys6common14small_c_string24run_with_cstr_allocating17hba9ef9d32f329395E, symObjAddr: 0x33300, symBinAddr: 0x100036DCC, symSize: 0xC8 }
  - { offsetInCU: 0x1956C, offset: 0x1E6D1, size: 0x8, addend: 0x0, symName: __ZN3std3sys6common14small_c_string24run_with_cstr_allocating17hcfe2482b1c4b3049E, symObjAddr: 0x33658, symBinAddr: 0x100036E94, symSize: 0x9C }
  - { offsetInCU: 0x19756, offset: 0x1E8BB, size: 0x8, addend: 0x0, symName: '__ZN3std3sys6common12thread_local10fast_local12Key$LT$T$GT$14try_initialize17h879ffd08aa476202E', symObjAddr: 0x37B70, symBinAddr: 0x10001E45C, symSize: 0xE4 }
  - { offsetInCU: 0x19982, offset: 0x1EAE7, size: 0x8, addend: 0x0, symName: __ZN3std3sys6common12thread_local10fast_local13destroy_value17h8c0be3f0c9e140f7E, symObjAddr: 0x37CA0, symBinAddr: 0x10001E540, symSize: 0x58 }
  - { offsetInCU: 0x19D81, offset: 0x1EEE6, size: 0x8, addend: 0x0, symName: __ZN3std7process5abort17h8e87e4c16e41c9aeE, symObjAddr: 0x30964, symBinAddr: 0x100036CEC, symSize: 0xC }
  - { offsetInCU: 0x19DB7, offset: 0x1EF1C, size: 0x8, addend: 0x0, symName: '__ZN58_$LT$std..io..error..Error$u20$as$u20$core..fmt..Debug$GT$3fmt17hb688c5cee311ac01E', symObjAddr: 0x22490, symBinAddr: 0x100018FC4, symSize: 0x4 }
  - { offsetInCU: 0x19FAA, offset: 0x1F10F, size: 0x8, addend: 0x0, symName: '__ZN3std2io5error83_$LT$impl$u20$core..fmt..Debug$u20$for$u20$std..io..error..repr_bitpacked..Repr$GT$3fmt17h01d4e1762e5f394dE', symObjAddr: 0x226E8, symBinAddr: 0x100018FC8, symSize: 0x40C }
  - { offsetInCU: 0x1A1EB, offset: 0x1F350, size: 0x8, addend: 0x0, symName: '__ZN60_$LT$std..io..error..Error$u20$as$u20$core..fmt..Display$GT$3fmt17h5f25c5e6914b88f3E', symObjAddr: 0x22AF4, symBinAddr: 0x1000193D4, symSize: 0x490 }
  - { offsetInCU: 0x1A3E9, offset: 0x1F54E, size: 0x8, addend: 0x0, symName: '__ZN62_$LT$std..io..error..ErrorKind$u20$as$u20$core..fmt..Debug$GT$3fmt17hc2badbb6b4a993e0E', symObjAddr: 0x3792C, symBinAddr: 0x10001E324, symSize: 0x2C }
  - { offsetInCU: 0x1A43A, offset: 0x1F59F, size: 0x8, addend: 0x0, symName: '__ZN80_$LT$std..io..Write..write_fmt..Adapter$LT$T$GT$$u20$as$u20$core..fmt..Write$GT$9write_str17h59b97adfaac3afa3E', symObjAddr: 0x28B20, symBinAddr: 0x10001AC30, symSize: 0x9C }
  - { offsetInCU: 0x1A688, offset: 0x1F7ED, size: 0x8, addend: 0x0, symName: '__ZN80_$LT$std..io..Write..write_fmt..Adapter$LT$T$GT$$u20$as$u20$core..fmt..Write$GT$9write_str17h71543dd93d9f7856E', symObjAddr: 0x28BBC, symBinAddr: 0x10001ACCC, symSize: 0xFC }
  - { offsetInCU: 0x1A7F7, offset: 0x1F95C, size: 0x8, addend: 0x0, symName: '__ZN80_$LT$std..io..Write..write_fmt..Adapter$LT$T$GT$$u20$as$u20$core..fmt..Write$GT$9write_str17hac0249e7006e8d41E', symObjAddr: 0x28CB8, symBinAddr: 0x10001ADC8, symSize: 0x50 }
  - { offsetInCU: 0x1A820, offset: 0x1F985, size: 0x8, addend: 0x0, symName: '__ZN80_$LT$std..io..Write..write_fmt..Adapter$LT$T$GT$$u20$as$u20$core..fmt..Write$GT$9write_str17hf5ccc0bdb78995c8E', symObjAddr: 0x28E04, symBinAddr: 0x10001AE18, symSize: 0x74 }
  - { offsetInCU: 0x1A96C, offset: 0x1FAD1, size: 0x8, addend: 0x0, symName: __ZN3std2io5Write9write_all17hb7dbefe74bfe2475E, symObjAddr: 0x28408, symBinAddr: 0x10001A518, symSize: 0xE0 }
  - { offsetInCU: 0x1AAB1, offset: 0x1FC16, size: 0x8, addend: 0x0, symName: __ZN3std2io5Write18write_all_vectored17h7bad02fae8d14ba9E, symObjAddr: 0x284E8, symBinAddr: 0x10001A5F8, symSize: 0x2D8 }
  - { offsetInCU: 0x1AF3A, offset: 0x2009F, size: 0x8, addend: 0x0, symName: __ZN3std2io5Write18write_all_vectored17hae9d65d19aa76037E, symObjAddr: 0x287C0, symBinAddr: 0x10001A8D0, symSize: 0x248 }
  - { offsetInCU: 0x1B288, offset: 0x203ED, size: 0x8, addend: 0x0, symName: __ZN3std2io5Write9write_fmt17hba767d98c27f49d1E, symObjAddr: 0x28A08, symBinAddr: 0x10001AB18, symSize: 0x8C }
  - { offsetInCU: 0x1B2DC, offset: 0x20441, size: 0x8, addend: 0x0, symName: __ZN3std2io5Write9write_fmt17hbe44c8becbce4f53E, symObjAddr: 0x28A94, symBinAddr: 0x10001ABA4, symSize: 0x8C }
  - { offsetInCU: 0x1B348, offset: 0x204AD, size: 0x8, addend: 0x0, symName: '__ZN3std2io5impls74_$LT$impl$u20$std..io..Write$u20$for$u20$alloc..vec..Vec$LT$u8$C$A$GT$$GT$5write17h6fb8058564605b77E', symObjAddr: 0x231E4, symBinAddr: 0x100019864, symSize: 0x80 }
  - { offsetInCU: 0x1B43D, offset: 0x205A2, size: 0x8, addend: 0x0, symName: '__ZN3std2io5impls74_$LT$impl$u20$std..io..Write$u20$for$u20$alloc..vec..Vec$LT$u8$C$A$GT$$GT$14write_vectored17h0d7dd55608184f8eE', symObjAddr: 0x23264, symBinAddr: 0x1000198E4, symSize: 0x160 }
  - { offsetInCU: 0x1B64B, offset: 0x207B0, size: 0x8, addend: 0x0, symName: '__ZN3std2io5impls74_$LT$impl$u20$std..io..Write$u20$for$u20$alloc..vec..Vec$LT$u8$C$A$GT$$GT$17is_write_vectored17h6b6d9dc8299bf780E', symObjAddr: 0x233C4, symBinAddr: 0x100019A44, symSize: 0x8 }
  - { offsetInCU: 0x1B665, offset: 0x207CA, size: 0x8, addend: 0x0, symName: '__ZN3std2io5impls74_$LT$impl$u20$std..io..Write$u20$for$u20$alloc..vec..Vec$LT$u8$C$A$GT$$GT$9write_all17h09acd86ee4344b3bE', symObjAddr: 0x233CC, symBinAddr: 0x100019A4C, symSize: 0x74 }
  - { offsetInCU: 0x1B753, offset: 0x208B8, size: 0x8, addend: 0x0, symName: '__ZN3std2io5impls74_$LT$impl$u20$std..io..Write$u20$for$u20$alloc..vec..Vec$LT$u8$C$A$GT$$GT$5flush17ha3d54fb9171e6915E', symObjAddr: 0x23440, symBinAddr: 0x100019AC0, symSize: 0x8 }
  - { offsetInCU: 0x1B7E3, offset: 0x20948, size: 0x8, addend: 0x0, symName: '__ZN60_$LT$std..io..stdio..StdoutRaw$u20$as$u20$std..io..Write$GT$9write_all17he957325186dd9841E', symObjAddr: 0x239BC, symBinAddr: 0x100019AC8, symSize: 0x104 }
  - { offsetInCU: 0x1B9BE, offset: 0x20B23, size: 0x8, addend: 0x0, symName: '__ZN60_$LT$std..io..stdio..StderrRaw$u20$as$u20$std..io..Write$GT$9write_all17h846703827f361a08E', symObjAddr: 0x23F74, symBinAddr: 0x100019BCC, symSize: 0x104 }
  - { offsetInCU: 0x1BBBF, offset: 0x20D24, size: 0x8, addend: 0x0, symName: '__ZN61_$LT$$RF$std..io..stdio..Stdout$u20$as$u20$std..io..Write$GT$9write_fmt17h6c84752aed8c1a8dE', symObjAddr: 0x25A88, symBinAddr: 0x100019CD0, symSize: 0x178 }
  - { offsetInCU: 0x1BE01, offset: 0x20F66, size: 0x8, addend: 0x0, symName: '__ZN61_$LT$std..io..stdio..StdoutLock$u20$as$u20$std..io..Write$GT$9write_all17hf0fba41497b70dedE', symObjAddr: 0x25F50, symBinAddr: 0x100019E48, symSize: 0x190 }
  - { offsetInCU: 0x1C3B7, offset: 0x2151C, size: 0x8, addend: 0x0, symName: '__ZN61_$LT$$RF$std..io..stdio..Stderr$u20$as$u20$std..io..Write$GT$9write_fmt17h52de718db3f03999E', symObjAddr: 0x26C18, symBinAddr: 0x100019FD8, symSize: 0x178 }
  - { offsetInCU: 0x1C651, offset: 0x217B6, size: 0x8, addend: 0x0, symName: __ZN3std2io5stdio31print_to_buffer_if_capture_used17h62d04fc18695e967E, symObjAddr: 0x27228, symBinAddr: 0x10001A150, symSize: 0x21C }
  - { offsetInCU: 0x1CD74, offset: 0x21ED9, size: 0x8, addend: 0x0, symName: __ZN3std2io5stdio6_print17hc11fad75e7961decE, symObjAddr: 0x2749C, symBinAddr: 0x10001A36C, symSize: 0xE4 }
  - { offsetInCU: 0x1CE75, offset: 0x21FDA, size: 0x8, addend: 0x0, symName: __ZN3std2io5stdio7_eprint17h150fa89f593a748cE, symObjAddr: 0x27580, symBinAddr: 0x10001A450, symSize: 0xC8 }
  - { offsetInCU: 0x1CEF6, offset: 0x2205B, size: 0x8, addend: 0x0, symName: '__ZN3std2io8buffered9bufwriter18BufWriter$LT$W$GT$9flush_buf17h0161f73c685c5fb7E', symObjAddr: 0x216B4, symBinAddr: 0x100018DB4, symSize: 0x210 }
  - { offsetInCU: 0x1D274, offset: 0x223D9, size: 0x8, addend: 0x0, symName: '__ZN3std2io8buffered9bufwriter18BufWriter$LT$W$GT$14write_all_cold17ha605e4df184801dbE', symObjAddr: 0x21A5C, symBinAddr: 0x100036C58, symSize: 0x94 }
  - { offsetInCU: 0x1D5AA, offset: 0x2270F, size: 0x8, addend: 0x0, symName: '__ZN3std4sync4once4Once15call_once_force28_$u7b$$u7b$closure$u7d$$u7d$17h05dc4954ce4f05b4E', symObjAddr: 0x313F4, symBinAddr: 0x10001C18C, symSize: 0x50 }
  - { offsetInCU: 0x1D673, offset: 0x227D8, size: 0x8, addend: 0x0, symName: '__ZN3std4sync4once4Once15call_once_force28_$u7b$$u7b$closure$u7d$$u7d$17h64d0c41430661bf4E', symObjAddr: 0x31444, symBinAddr: 0x10001C1DC, symSize: 0x84 }
  - { offsetInCU: 0x1D7DC, offset: 0x22941, size: 0x8, addend: 0x0, symName: '__ZN3std4sync4once4Once9call_once28_$u7b$$u7b$closure$u7d$$u7d$17hd46ef0c38670a610E', symObjAddr: 0x30F14, symBinAddr: 0x10001BE94, symSize: 0x2F8 }
  - { offsetInCU: 0x1E180, offset: 0x232E5, size: 0x8, addend: 0x0, symName: '__ZN3std4sync9once_lock17OnceLock$LT$T$GT$10initialize17h672c3c5818bc9b63E', symObjAddr: 0x315EC, symBinAddr: 0x100036CF8, symSize: 0x68 }
  - { offsetInCU: 0x1E1AB, offset: 0x23310, size: 0x8, addend: 0x0, symName: '__ZN3std4sync9once_lock17OnceLock$LT$T$GT$10initialize17h672c3c5818bc9b63E', symObjAddr: 0x315EC, symBinAddr: 0x100036CF8, symSize: 0x68 }
  - { offsetInCU: 0x1E1BF, offset: 0x23324, size: 0x8, addend: 0x0, symName: '__ZN3std4sync9once_lock17OnceLock$LT$T$GT$10initialize17h672c3c5818bc9b63E', symObjAddr: 0x315EC, symBinAddr: 0x100036CF8, symSize: 0x68 }
  - { offsetInCU: 0x1E1D3, offset: 0x23338, size: 0x8, addend: 0x0, symName: '__ZN3std4sync9once_lock17OnceLock$LT$T$GT$10initialize17h672c3c5818bc9b63E', symObjAddr: 0x315EC, symBinAddr: 0x100036CF8, symSize: 0x68 }
  - { offsetInCU: 0x1E1E8, offset: 0x2334D, size: 0x8, addend: 0x0, symName: '__ZN3std4sync9once_lock17OnceLock$LT$T$GT$10initialize17haca285eedc17853eE', symObjAddr: 0x31654, symBinAddr: 0x100036D60, symSize: 0x6C }
  - { offsetInCU: 0x1E213, offset: 0x23378, size: 0x8, addend: 0x0, symName: '__ZN3std4sync9once_lock17OnceLock$LT$T$GT$10initialize17haca285eedc17853eE', symObjAddr: 0x31654, symBinAddr: 0x100036D60, symSize: 0x6C }
  - { offsetInCU: 0x1E227, offset: 0x2338C, size: 0x8, addend: 0x0, symName: '__ZN3std4sync9once_lock17OnceLock$LT$T$GT$10initialize17haca285eedc17853eE', symObjAddr: 0x31654, symBinAddr: 0x100036D60, symSize: 0x6C }
  - { offsetInCU: 0x1E23B, offset: 0x233A0, size: 0x8, addend: 0x0, symName: '__ZN3std4sync9once_lock17OnceLock$LT$T$GT$10initialize17haca285eedc17853eE', symObjAddr: 0x31654, symBinAddr: 0x100036D60, symSize: 0x6C }
  - { offsetInCU: 0x1E3C5, offset: 0x2352A, size: 0x8, addend: 0x0, symName: '__ZN3std10sys_common9backtrace10_print_fmt28_$u7b$$u7b$closure$u7d$$u7d$17hb3b5a95dceadd301E', symObjAddr: 0x33CD8, symBinAddr: 0x10001C570, symSize: 0x20 }
  - { offsetInCU: 0x1E3ED, offset: 0x23552, size: 0x8, addend: 0x0, symName: '__ZN3std10sys_common9backtrace10_print_fmt28_$u7b$$u7b$closure$u7d$$u7d$17hadfeb8716bbe2dc7E', symObjAddr: 0x33CF8, symBinAddr: 0x10001C590, symSize: 0x130 }
  - { offsetInCU: 0x1E4FF, offset: 0x23664, size: 0x8, addend: 0x0, symName: '__ZN3std10sys_common9backtrace10_print_fmt28_$u7b$$u7b$closure$u7d$$u7d$28_$u7b$$u7b$closure$u7d$$u7d$17h68c5ee961657e78eE', symObjAddr: 0x33E28, symBinAddr: 0x10001C6C0, symSize: 0x258 }
  - { offsetInCU: 0x1E731, offset: 0x23896, size: 0x8, addend: 0x0, symName: __ZN3std10sys_common9backtrace5print17h4b0f05652941f898E, symObjAddr: 0x339C8, symBinAddr: 0x10001C260, symSize: 0x148 }
  - { offsetInCU: 0x1E9A8, offset: 0x23B0D, size: 0x8, addend: 0x0, symName: '__ZN91_$LT$std..sys_common..backtrace.._print..DisplayBacktrace$u20$as$u20$core..fmt..Display$GT$3fmt17h61543689eb258b21E', symObjAddr: 0x33B10, symBinAddr: 0x10001C3A8, symSize: 0x1C8 }
  - { offsetInCU: 0x1ED26, offset: 0x23E8B, size: 0x8, addend: 0x0, symName: __ZN3std10sys_common9backtrace26__rust_end_short_backtrace17h7c3484a27b42198eE, symObjAddr: 0x34080, symBinAddr: 0x10001C918, symSize: 0xC }
  - { offsetInCU: 0x1ED3F, offset: 0x23EA4, size: 0x8, addend: 0x0, symName: __ZN3std10sys_common9backtrace15output_filename17h01e3307dbd44e24cE, symObjAddr: 0x3408C, symBinAddr: 0x10001C924, symSize: 0x108 }
  - { offsetInCU: 0x1EE87, offset: 0x23FEC, size: 0x8, addend: 0x0, symName: '__ZN3std10sys_common8lazy_box16LazyBox$LT$T$GT$10initialize17h599b35d2a075e41aE', symObjAddr: 0x34478, symBinAddr: 0x100036F30, symSize: 0x5C }
  - { offsetInCU: 0x1EF60, offset: 0x240C5, size: 0x8, addend: 0x0, symName: '__ZN3std10sys_common8lazy_box16LazyBox$LT$T$GT$10initialize17h8c2efeced3e2d372E', symObjAddr: 0x344D4, symBinAddr: 0x100036F8C, symSize: 0x120 }
  - { offsetInCU: 0x1F1B7, offset: 0x2431C, size: 0x8, addend: 0x0, symName: __ZN3std10sys_common4once5queue4Once4call17hf7b796b681d72a12E, symObjAddr: 0x41058, symBinAddr: 0x1000370D8, symSize: 0x48C }
  - { offsetInCU: 0x1FC41, offset: 0x24DA6, size: 0x8, addend: 0x0, symName: '__ZN83_$LT$std..sys_common..once..queue..WaiterQueue$u20$as$u20$core..ops..drop..Drop$GT$4drop17h609a11eaf3875841E', symObjAddr: 0x414E4, symBinAddr: 0x10001FC48, symSize: 0xE8 }
  - { offsetInCU: 0x1FE75, offset: 0x24FDA, size: 0x8, addend: 0x0, symName: __ZN3std10sys_common11thread_info11THREAD_INFO7__getit7destroy17h49615fd9a303b684E, symObjAddr: 0x4940C, symBinAddr: 0x100026A38, symSize: 0x54 }
  - { offsetInCU: 0x2005B, offset: 0x251C0, size: 0x8, addend: 0x0, symName: __ZN3std10sys_common11thread_info14current_thread17hde71bed9040ae601E, symObjAddr: 0x34CF8, symBinAddr: 0x10001CA2C, symSize: 0x150 }
  - { offsetInCU: 0x2035F, offset: 0x254C4, size: 0x8, addend: 0x0, symName: __ZN3std10sys_common11thread_info3set17h246e5d4082f37be9E, symObjAddr: 0x34E48, symBinAddr: 0x10001CB7C, symSize: 0x224 }
  - { offsetInCU: 0x207DF, offset: 0x25944, size: 0x8, addend: 0x0, symName: __ZN3std9panicking11panic_count17is_zero_slow_path17hd41613f6378ca3a0E, symObjAddr: 0x36844, symBinAddr: 0x1000370AC, symSize: 0x2C }
  - { offsetInCU: 0x2091E, offset: 0x25A83, size: 0x8, addend: 0x0, symName: ___rust_drop_panic, symObjAddr: 0x35C08, symBinAddr: 0x10001CFF0, symSize: 0xA0 }
  - { offsetInCU: 0x209A9, offset: 0x25B0E, size: 0x8, addend: 0x0, symName: ___rust_foreign_exception, symObjAddr: 0x35CA8, symBinAddr: 0x10001D090, symSize: 0xA0 }
  - { offsetInCU: 0x20A46, offset: 0x25BAB, size: 0x8, addend: 0x0, symName: '__ZN3std9panicking12default_hook28_$u7b$$u7b$closure$u7d$$u7d$17h09842207cd548064E', symObjAddr: 0x365F4, symBinAddr: 0x10001D5C4, symSize: 0x138 }
  - { offsetInCU: 0x20AFA, offset: 0x25C5F, size: 0x8, addend: 0x0, symName: __ZN3std9panicking12default_hook17h7b7a94b72734b29bE, symObjAddr: 0x36160, symBinAddr: 0x10001D130, symSize: 0x494 }
  - { offsetInCU: 0x2171D, offset: 0x26882, size: 0x8, addend: 0x0, symName: _rust_begin_unwind, symObjAddr: 0x368CC, symBinAddr: 0x10001D6FC, symSize: 0x40 }
  - { offsetInCU: 0x217BA, offset: 0x2691F, size: 0x8, addend: 0x0, symName: '__ZN102_$LT$std..panicking..begin_panic_handler..FormatStringPayload$u20$as$u20$core..panic..PanicPayload$GT$8take_box17haaf0ccc7f9d7b258E', symObjAddr: 0x3690C, symBinAddr: 0x10001D73C, symSize: 0xEC }
  - { offsetInCU: 0x21A06, offset: 0x26B6B, size: 0x8, addend: 0x0, symName: '__ZN102_$LT$std..panicking..begin_panic_handler..FormatStringPayload$u20$as$u20$core..panic..PanicPayload$GT$3get17h5d525cc28725c553E', symObjAddr: 0x369F8, symBinAddr: 0x10001D828, symSize: 0x88 }
  - { offsetInCU: 0x21B17, offset: 0x26C7C, size: 0x8, addend: 0x0, symName: '__ZN99_$LT$std..panicking..begin_panic_handler..StaticStrPayload$u20$as$u20$core..panic..PanicPayload$GT$8take_box17he8dec10c2cdead37E', symObjAddr: 0x36A80, symBinAddr: 0x10001D8B0, symSize: 0x50 }
  - { offsetInCU: 0x21BA1, offset: 0x26D06, size: 0x8, addend: 0x0, symName: '__ZN99_$LT$std..panicking..begin_panic_handler..StaticStrPayload$u20$as$u20$core..panic..PanicPayload$GT$3get17hd482734e75df2601E', symObjAddr: 0x36AD0, symBinAddr: 0x10001D900, symSize: 0xC }
  - { offsetInCU: 0x21BBC, offset: 0x26D21, size: 0x8, addend: 0x0, symName: '__ZN3std9panicking19begin_panic_handler28_$u7b$$u7b$closure$u7d$$u7d$17h5d6362f00450f134E', symObjAddr: 0x36ADC, symBinAddr: 0x10001D90C, symSize: 0xBC }
  - { offsetInCU: 0x21D26, offset: 0x26E8B, size: 0x8, addend: 0x0, symName: __ZN3std9panicking20rust_panic_with_hook17h7dbf2dec4b56ce3eE, symObjAddr: 0x36B98, symBinAddr: 0x10001D9C8, symSize: 0x304 }
  - { offsetInCU: 0x222AD, offset: 0x27412, size: 0x8, addend: 0x0, symName: _rust_panic, symObjAddr: 0x36F94, symBinAddr: 0x10001DCCC, symSize: 0x60 }
  - { offsetInCU: 0x223F2, offset: 0x27557, size: 0x8, addend: 0x0, symName: '__ZN68_$LT$std..thread..local..AccessError$u20$as$u20$core..fmt..Debug$GT$3fmt17h7c8f1522b3437cadE', symObjAddr: 0x1BBF4, symBinAddr: 0x10001876C, symSize: 0x38 }
  - { offsetInCU: 0x22412, offset: 0x27577, size: 0x8, addend: 0x0, symName: __ZN3std6thread6Thread3new17h750cbe3b1923f653E, symObjAddr: 0x1C1A8, symBinAddr: 0x1000187D4, symSize: 0x170 }
  - { offsetInCU: 0x2279D, offset: 0x27902, size: 0x8, addend: 0x0, symName: __ZN3std6thread7current17h194cf462406335ddE, symObjAddr: 0x1BCA8, symBinAddr: 0x1000187A4, symSize: 0x30 }
  - { offsetInCU: 0x227D5, offset: 0x2793A, size: 0x8, addend: 0x0, symName: __ZN3std6thread8ThreadId3new9exhausted17hfdf30833bf56dbcdE, symObjAddr: 0x1C16C, symBinAddr: 0x100036C1C, symSize: 0x3C }
  - { offsetInCU: 0x22901, offset: 0x27A66, size: 0x8, addend: 0x0, symName: __ZN3std12backtrace_rs9symbolize5gimli7Context3new17h3d20696108c07457E, symObjAddr: 0x42878, symBinAddr: 0x10001FEB0, symSize: 0x3290 }
  - { offsetInCU: 0x27F3F, offset: 0x2D0A4, size: 0x8, addend: 0x0, symName: __ZN3std12backtrace_rs9symbolize5gimli7Context11find_frames17hdca619b655292d4fE, symObjAddr: 0x45B08, symBinAddr: 0x100023140, symSize: 0x3E4 }
  - { offsetInCU: 0x282F4, offset: 0x2D459, size: 0x8, addend: 0x0, symName: __ZN3std12backtrace_rs9symbolize5gimli5macho6Object5parse17hefadaa32f470f1f9E, symObjAddr: 0x487EC, symBinAddr: 0x100025E18, symSize: 0xA98 }
  - { offsetInCU: 0x298DD, offset: 0x2EA42, size: 0x8, addend: 0x0, symName: __ZN3std12backtrace_rs9symbolize5gimli5macho6Object7section17h26951b879cab5ab4E, symObjAddr: 0x49284, symBinAddr: 0x1000268B0, symSize: 0x188 }
  - { offsetInCU: 0x29BB1, offset: 0x2ED16, size: 0x8, addend: 0x0, symName: __ZN3std12backtrace_rs9symbolize5gimli5macho11find_header17h96c90730d144c6c8E, symObjAddr: 0x485DC, symBinAddr: 0x100025C08, symSize: 0x210 }
  - { offsetInCU: 0x2A0C7, offset: 0x2F22C, size: 0x8, addend: 0x0, symName: __ZN3std12backtrace_rs9symbolize5gimli4mmap17h0f526836cbc9f4e0E, symObjAddr: 0x45EEC, symBinAddr: 0x100023524, symSize: 0x1D4 }
  - { offsetInCU: 0x2A5AB, offset: 0x2F710, size: 0x8, addend: 0x0, symName: __ZN3std12backtrace_rs9symbolize5gimli7resolve17hbf708691c820659cE, symObjAddr: 0x460C0, symBinAddr: 0x1000236F8, symSize: 0x2510 }
  - { offsetInCU: 0x2E838, offset: 0x3399D, size: 0x8, addend: 0x0, symName: __ZN3std12backtrace_rs9symbolize6Symbol4name17h93a4399f90a6eba8E, symObjAddr: 0x370D4, symBinAddr: 0x10001DD2C, symSize: 0xE4 }
  - { offsetInCU: 0x2E975, offset: 0x33ADA, size: 0x8, addend: 0x0, symName: '__ZN79_$LT$std..backtrace_rs..symbolize..SymbolName$u20$as$u20$core..fmt..Display$GT$3fmt17hf7966b1dd370eaefE', symObjAddr: 0x42678, symBinAddr: 0x10001FDB0, symSize: 0x100 }
  - { offsetInCU: 0x2EA47, offset: 0x33BAC, size: 0x8, addend: 0x0, symName: __ZN3std12backtrace_rs9backtrace9libunwind5trace8trace_fn17h2bb8f9a7818e83dcE, symObjAddr: 0x4263C, symBinAddr: 0x10001FD74, symSize: 0x3C }
  - { offsetInCU: 0x2EB1A, offset: 0x33C7F, size: 0x8, addend: 0x0, symName: __ZN3std12backtrace_rs5print17BacktraceFrameFmt21print_raw_with_column17h4ce20467ce2c4117E, symObjAddr: 0x37310, symBinAddr: 0x10001DE10, symSize: 0x514 }
  - { offsetInCU: 0x2ECBE, offset: 0x33E23, size: 0x8, addend: 0x0, symName: '__ZN3std2rt19lang_start_internal28_$u7b$$u7b$closure$u7d$$u7d$17h8dcc22bfb502185aE', symObjAddr: 0x1B9FC, symBinAddr: 0x1000186E4, symSize: 0x44 }
  - { offsetInCU: 0x2ECEC, offset: 0x33E51, size: 0x8, addend: 0x0, symName: '__ZN3std2rt19lang_start_internal28_$u7b$$u7b$closure$u7d$$u7d$17h6c59d2de31c7d2eaE', symObjAddr: 0x1BA40, symBinAddr: 0x100018728, symSize: 0x44 }
  - { offsetInCU: 0x2ED27, offset: 0x33E8C, size: 0x8, addend: 0x0, symName: __ZN3std2rt19lang_start_internal17hcbff2ae5803efda8E, symObjAddr: 0x1B2D8, symBinAddr: 0x100017FC0, symSize: 0x724 }
  - { offsetInCU: 0x2F720, offset: 0x34885, size: 0x8, addend: 0x0, symName: __ZN3std5panic19get_backtrace_style17he5725bbf19352c98E, symObjAddr: 0x2D0B0, symBinAddr: 0x10001AE8C, symSize: 0x168 }
  - { offsetInCU: 0x2FA7D, offset: 0x34BE2, size: 0x8, addend: 0x0, symName: __ZN3std3env11current_dir17ha425c9a1b11539ddE, symObjAddr: 0x1D3D8, symBinAddr: 0x100018944, symSize: 0x1AC }
  - { offsetInCU: 0x2FDD0, offset: 0x34F35, size: 0x8, addend: 0x0, symName: __ZN3std3env4args17h5bf0bc8e333f5ba5E, symObjAddr: 0x1E610, symBinAddr: 0x100018AF0, symSize: 0x34 }
  - { offsetInCU: 0x2FDEA, offset: 0x34F4F, size: 0x8, addend: 0x0, symName: __ZN3std3env7args_os17h650b28c8aa1e8ca2E, symObjAddr: 0x1E644, symBinAddr: 0x100018B24, symSize: 0x184 }
  - { offsetInCU: 0x30292, offset: 0x353F7, size: 0x8, addend: 0x0, symName: '__ZN73_$LT$std..env..Args$u20$as$u20$core..iter..traits..iterator..Iterator$GT$4next17h25a33e71641d7c4aE', symObjAddr: 0x1E7C8, symBinAddr: 0x100018CA8, symSize: 0xE4 }
  - { offsetInCU: 0x30488, offset: 0x355ED, size: 0x8, addend: 0x0, symName: '__ZN73_$LT$std..env..Args$u20$as$u20$core..iter..traits..iterator..Iterator$GT$9size_hint17hcbc665169ca192f8E', symObjAddr: 0x1E8AC, symBinAddr: 0x100018D8C, symSize: 0x28 }
  - { offsetInCU: 0x304A6, offset: 0x3560B, size: 0x8, addend: 0x0, symName: '__ZN73_$LT$std..env..Args$u20$as$u20$core..iter..traits..iterator..Iterator$GT$9size_hint17hcbc665169ca192f8E', symObjAddr: 0x1E8AC, symBinAddr: 0x100018D8C, symSize: 0x28 }
  - { offsetInCU: 0x304BB, offset: 0x35620, size: 0x8, addend: 0x0, symName: '__ZN73_$LT$std..env..Args$u20$as$u20$core..iter..traits..iterator..Iterator$GT$9size_hint17hcbc665169ca192f8E', symObjAddr: 0x1E8AC, symBinAddr: 0x100018D8C, symSize: 0x28 }
  - { offsetInCU: 0x305B2, offset: 0x35717, size: 0x8, addend: 0x0, symName: __ZN3std5alloc24default_alloc_error_hook17h7d9a437ed47ffbbeE, symObjAddr: 0x35918, symBinAddr: 0x10001CDA0, symSize: 0x11C }
  - { offsetInCU: 0x30689, offset: 0x357EE, size: 0x8, addend: 0x0, symName: ___rdl_alloc, symObjAddr: 0x35A34, symBinAddr: 0x10001CEBC, symSize: 0x6C }
  - { offsetInCU: 0x30717, offset: 0x3587C, size: 0x8, addend: 0x0, symName: ___rdl_dealloc, symObjAddr: 0x35AA0, symBinAddr: 0x10001CF28, symSize: 0x4 }
  - { offsetInCU: 0x30731, offset: 0x35896, size: 0x8, addend: 0x0, symName: ___rdl_dealloc, symObjAddr: 0x35AA0, symBinAddr: 0x10001CF28, symSize: 0x4 }
  - { offsetInCU: 0x30743, offset: 0x358A8, size: 0x8, addend: 0x0, symName: ___rdl_realloc, symObjAddr: 0x35AA4, symBinAddr: 0x10001CF2C, symSize: 0xC4 }
  - { offsetInCU: 0x3086C, offset: 0x359D1, size: 0x8, addend: 0x0, symName: __ZN3std5alloc8rust_oom17h44156b04f6aa3313E, symObjAddr: 0x42594, symBinAddr: 0x10001FD30, symSize: 0x2C }
  - { offsetInCU: 0x308B7, offset: 0x35A1C, size: 0x8, addend: 0x0, symName: ___rg_oom, symObjAddr: 0x425C0, symBinAddr: 0x10001FD5C, symSize: 0x18 }
  - { offsetInCU: 0x30AD5, offset: 0x35C3A, size: 0x8, addend: 0x0, symName: __ZN5gimli4read6reader6Reader11read_offset17h658d51e5ce7d4f16E, symObjAddr: 0x128C0, symBinAddr: 0x10000FD2C, symSize: 0xD8 }
  - { offsetInCU: 0x30D29, offset: 0x35E8E, size: 0x8, addend: 0x0, symName: __ZN5gimli4read6reader6Reader12read_address17hc650dac089e5c76eE, symObjAddr: 0x12998, symBinAddr: 0x10000FE04, symSize: 0x160 }
  - { offsetInCU: 0x3105F, offset: 0x361C4, size: 0x8, addend: 0x0, symName: __ZN5gimli4read6reader6Reader12read_sleb12817h6d8a640f458688aeE, symObjAddr: 0x12AF8, symBinAddr: 0x10000FF64, symSize: 0x220 }
  - { offsetInCU: 0x31135, offset: 0x3629A, size: 0x8, addend: 0x0, symName: __ZN5gimli4read6reader6Reader17read_sized_offset17ha0810ff139bbac95E, symObjAddr: 0x12D18, symBinAddr: 0x100010184, symSize: 0x188 }
  - { offsetInCU: 0x314DC, offset: 0x36641, size: 0x8, addend: 0x0, symName: __ZN5gimli4read4line15FileEntryFormat5parse17hfa29dc792613f08eE, symObjAddr: 0xC6D8, symBinAddr: 0x100009B44, symSize: 0x340 }
  - { offsetInCU: 0x31C89, offset: 0x36DEE, size: 0x8, addend: 0x0, symName: __ZN5gimli4read4line15parse_attribute17hb494d6cc3d38fe6dE, symObjAddr: 0xCA18, symBinAddr: 0x100009E84, symSize: 0xA70 }
  - { offsetInCU: 0x337EB, offset: 0x38950, size: 0x8, addend: 0x0, symName: '__ZN93_$LT$gimli..read..line..LineProgramHeader$LT$R$C$Offset$GT$$u20$as$u20$core..clone..Clone$GT$5clone17hace2fb26c7e11ac6E', symObjAddr: 0x1499C, symBinAddr: 0x1000117A0, symSize: 0x348 }
  - { offsetInCU: 0x340D3, offset: 0x39238, size: 0x8, addend: 0x0, symName: '__ZN5gimli4read6abbrev20DebugAbbrev$LT$R$GT$13abbreviations17hb4677a7050f052dfE', symObjAddr: 0x120B8, symBinAddr: 0x10000F524, symSize: 0x808 }
  - { offsetInCU: 0x3568A, offset: 0x3A7EF, size: 0x8, addend: 0x0, symName: __ZN5gimli4read4unit15parse_attribute17h88b744725dfc6cc9E, symObjAddr: 0xD488, symBinAddr: 0x10000A8F4, symSize: 0x11AC }
  - { offsetInCU: 0x385C7, offset: 0x3D72C, size: 0x8, addend: 0x0, symName: __ZN5gimli4read4unit15skip_attributes17h11b459caec6e545aE, symObjAddr: 0xE634, symBinAddr: 0x10000BAA0, symSize: 0x518 }
  - { offsetInCU: 0x38F8D, offset: 0x3E0F2, size: 0x8, addend: 0x0, symName: '__ZN5gimli4read4unit32AttributeValue$LT$R$C$Offset$GT$11udata_value17h3e4a315e7d242602E', symObjAddr: 0xF1CC, symBinAddr: 0x10000C638, symSize: 0x70 }
  - { offsetInCU: 0x38FA0, offset: 0x3E105, size: 0x8, addend: 0x0, symName: '__ZN5gimli4read4unit32AttributeValue$LT$R$C$Offset$GT$8u8_value17h4163a9cdfe503da5E', symObjAddr: 0xF23C, symBinAddr: 0x10000C6A8, symSize: 0xA0 }
  - { offsetInCU: 0x38FC8, offset: 0x3E12D, size: 0x8, addend: 0x0, symName: '__ZN5gimli4read4unit32AttributeValue$LT$R$C$Offset$GT$9u16_value17h45f01bb85ed6b976E', symObjAddr: 0xF2DC, symBinAddr: 0x10000C748, symSize: 0xA0 }
  - { offsetInCU: 0x39037, offset: 0x3E19C, size: 0x8, addend: 0x0, symName: '__ZN5gimli4read4unit18Attribute$LT$R$GT$5value17h351a8821ee42893cE', symObjAddr: 0xEB4C, symBinAddr: 0x10000BFB8, symSize: 0x3C0 }
  - { offsetInCU: 0x39364, offset: 0x3E4C9, size: 0x8, addend: 0x0, symName: '__ZN5gimli4read4unit43DebuggingInformationEntry$LT$R$C$Offset$GT$4attr17h00f956f1678e8d4bE', symObjAddr: 0xF9A0, symBinAddr: 0x10000CE0C, symSize: 0x17C }
  - { offsetInCU: 0x395F6, offset: 0x3E75B, size: 0x8, addend: 0x0, symName: '__ZN5gimli4read4unit22EntriesCursor$LT$R$GT$10next_entry17h9206cb58f40f620eE', symObjAddr: 0xEF0C, symBinAddr: 0x10000C378, symSize: 0x2C0 }
  - { offsetInCU: 0x39B32, offset: 0x3EC97, size: 0x8, addend: 0x0, symName: '__ZN5gimli4read4unit33DebugInfoUnitHeadersIter$LT$R$GT$4next17h886b41b707887444E', symObjAddr: 0xF37C, symBinAddr: 0x10000C7E8, symSize: 0x624 }
  - { offsetInCU: 0x3AF26, offset: 0x4008B, size: 0x8, addend: 0x0, symName: '__ZN90_$LT$gimli..read..unit..AttributeValue$LT$R$C$Offset$GT$$u20$as$u20$core..clone..Clone$GT$5clone17h961e02f58b75a561E', symObjAddr: 0x14934, symBinAddr: 0x100011738, symSize: 0x68 }
  - { offsetInCU: 0x3B081, offset: 0x401E6, size: 0x8, addend: 0x0, symName: '__ZN5gimli4read5dwarf14Dwarf$LT$R$GT$11attr_string17h39a718dd94cf2599E', symObjAddr: 0x115E0, symBinAddr: 0x10000EA4C, symSize: 0x22C }
  - { offsetInCU: 0x3B82C, offset: 0x40991, size: 0x8, addend: 0x0, symName: '__ZN5gimli4read5dwarf13Unit$LT$R$GT$3new17h1469c8d136c92d05E', symObjAddr: 0xFB1C, symBinAddr: 0x10000CF88, symSize: 0x1AC4 }
  - { offsetInCU: 0x3E22B, offset: 0x43390, size: 0x8, addend: 0x0, symName: '__ZN5gimli4read5index18UnitIndex$LT$R$GT$5parse17h0b4556d13ead9954E', symObjAddr: 0x1180C, symBinAddr: 0x10000EC78, symSize: 0x8AC }
  - { offsetInCU: 0x3E7A3, offset: 0x43908, size: 0x8, addend: 0x0, symName: '__ZN5gimli4read7aranges30ArangeHeader$LT$R$C$Offset$GT$5parse17h497688fc18ad6299E', symObjAddr: 0x12EA0, symBinAddr: 0x10001030C, symSize: 0x2DC }
  - { offsetInCU: 0x3F009, offset: 0x4416E, size: 0x8, addend: 0x0, symName: '__ZN5gimli4read8rnglists20RngListIter$LT$R$GT$4next17h1f4be1af325569adE', symObjAddr: 0x1317C, symBinAddr: 0x1000105E8, symSize: 0xC5C }
  - { offsetInCU: 0x4096A, offset: 0x45ACF, size: 0x8, addend: 0x0, symName: '__ZN9addr2line8function17Function$LT$R$GT$14parse_children17he150b341af7a8e22E', symObjAddr: 0x1A080, symBinAddr: 0x100016DCC, symSize: 0x1060 }
  - { offsetInCU: 0x41EBB, offset: 0x47020, size: 0x8, addend: 0x0, symName: __ZN9addr2line8function10name_entry17h2849b2c774d3b34aE, symObjAddr: 0x19CE8, symBinAddr: 0x100016A34, symSize: 0x398 }
  - { offsetInCU: 0x42345, offset: 0x474AA, size: 0x8, addend: 0x0, symName: __ZN9addr2line8function9name_attr17ha028d1c7ad694e7dE, symObjAddr: 0x1B0E0, symBinAddr: 0x100017E2C, symSize: 0x194 }
  - { offsetInCU: 0x424A5, offset: 0x4760A, size: 0x8, addend: 0x0, symName: __ZN9addr2line11render_file17h9e076ee06a990382E, symObjAddr: 0x14D9C, symBinAddr: 0x100011AE8, symSize: 0x2B0 }
  - { offsetInCU: 0x42BA6, offset: 0x47D0B, size: 0x8, addend: 0x0, symName: '__ZN9addr2line16Context$LT$R$GT$9find_unit17h7a56e2ca52e957f2E', symObjAddr: 0x1504C, symBinAddr: 0x100011D98, symSize: 0x14C }
  - { offsetInCU: 0x42D72, offset: 0x47ED7, size: 0x8, addend: 0x0, symName: '__ZN9addr2line4lazy17LazyCell$LT$T$GT$11borrow_with17habde2a8a3fd2ac39E', symObjAddr: 0x18220, symBinAddr: 0x100014F6C, symSize: 0x8C }
  - { offsetInCU: 0x42E34, offset: 0x47F99, size: 0x8, addend: 0x0, symName: '__ZN9addr2line16ResUnit$LT$R$GT$25find_function_or_location28_$u7b$$u7b$closure$u7d$$u7d$17h01c7ced8e6eb1f2eE', symObjAddr: 0x15498, symBinAddr: 0x1000121E4, symSize: 0x2670 }
  - { offsetInCU: 0x46BE8, offset: 0x4BD4D, size: 0x8, addend: 0x0, symName: '__ZN9addr2line16ResUnit$LT$R$GT$18dwarf_and_unit_dwo17h62868588c3064eb7E', symObjAddr: 0x15198, symBinAddr: 0x100011EE4, symSize: 0x300 }
  - { offsetInCU: 0x47040, offset: 0x4C1A5, size: 0x8, addend: 0x0, symName: '__ZN9addr2line18FrameIter$LT$R$GT$4next17h26a5608ba2612680E', symObjAddr: 0x17B08, symBinAddr: 0x100014854, symSize: 0x2C8 }
  - { offsetInCU: 0x474CF, offset: 0x4C634, size: 0x8, addend: 0x0, symName: '__ZN9addr2line30LoopingLookup$LT$T$C$L$C$F$GT$10new_lookup17h9f05b9403c3cd4d5E', symObjAddr: 0x17DD0, symBinAddr: 0x100014B1C, symSize: 0x450 }
  - { offsetInCU: 0x47924, offset: 0x4CA89, size: 0x8, addend: 0x0, symName: __ZN9addr2line5Lines5parse17hfd472aefb7bb87bdE, symObjAddr: 0x182AC, symBinAddr: 0x100014FF8, symSize: 0x1A3C }
  - { offsetInCU: 0x4A8AE, offset: 0x4FA13, size: 0x8, addend: 0x0, symName: __ZN6object4read7archive13ArchiveMember12parse_aixbig17h009cdf1b323f5748E, symObjAddr: 0x1438C, symBinAddr: 0x100011258, symSize: 0x164 }
  - { offsetInCU: 0x4AA19, offset: 0x4FB7E, size: 0x8, addend: 0x0, symName: __ZN6object4read7archive13ArchiveMember5parse17h64db4ddc99f577e6E, symObjAddr: 0x144F0, symBinAddr: 0x1000113BC, symSize: 0x240 }
  - { offsetInCU: 0x4ADBA, offset: 0x4FF1F, size: 0x8, addend: 0x0, symName: __ZN6object4read7archive23parse_bsd_extended_name17h95a30bed0060e4e1E, symObjAddr: 0x14730, symBinAddr: 0x1000115FC, symSize: 0xD0 }
  - { offsetInCU: 0x1E, offset: 0x504F1, size: 0x8, addend: 0x0, symName: '__ZN4core3ptr79drop_in_place$LT$alloc..boxed..Box$LT$panic_unwind..real_imp..Exception$GT$$GT$17hb04747cd0a04d1f4E', symObjAddr: 0x0, symBinAddr: 0x100026A8C, symSize: 0x88 }
  - { offsetInCU: 0x4F, offset: 0x50522, size: 0x8, addend: 0x0, symName: '__ZN4core3ptr79drop_in_place$LT$alloc..boxed..Box$LT$panic_unwind..real_imp..Exception$GT$$GT$17hb04747cd0a04d1f4E', symObjAddr: 0x0, symBinAddr: 0x100026A8C, symSize: 0x88 }
  - { offsetInCU: 0x30D, offset: 0x507E0, size: 0x8, addend: 0x0, symName: __ZN12panic_unwind8real_imp5panic17exception_cleanup17hac73b423954c1fdcE, symObjAddr: 0x1C0, symBinAddr: 0x100026C4C, symSize: 0x18 }
  - { offsetInCU: 0x328, offset: 0x507FB, size: 0x8, addend: 0x0, symName: ___rust_panic_cleanup, symObjAddr: 0x88, symBinAddr: 0x100026B14, symSize: 0x68 }
  - { offsetInCU: 0x3C8, offset: 0x5089B, size: 0x8, addend: 0x0, symName: ___rust_start_panic, symObjAddr: 0xF0, symBinAddr: 0x100026B7C, symSize: 0xD0 }
  - { offsetInCU: 0x132, offset: 0x50B66, size: 0x8, addend: 0x0, symName: __ZN6memchr6memchr8fallback6memchr17hbe7e4c098ca19587E, symObjAddr: 0x58, symBinAddr: 0x100026F84, symSize: 0x1B8 }
  - { offsetInCU: 0x14F, offset: 0x50B83, size: 0x8, addend: 0x0, symName: __ZN6memchr6memchr8fallback6memchr17hbe7e4c098ca19587E, symObjAddr: 0x58, symBinAddr: 0x100026F84, symSize: 0x1B8 }
  - { offsetInCU: 0x2BE, offset: 0x50CF2, size: 0x8, addend: 0x0, symName: __ZN6memchr6memchr8fallback7memchr217ha8abef2072e5e2c0E, symObjAddr: 0x210, symBinAddr: 0x10002713C, symSize: 0x1F4 }
  - { offsetInCU: 0x2DB, offset: 0x50D0F, size: 0x8, addend: 0x0, symName: __ZN6memchr6memchr8fallback7memchr217ha8abef2072e5e2c0E, symObjAddr: 0x210, symBinAddr: 0x10002713C, symSize: 0x1F4 }
  - { offsetInCU: 0x1E, offset: 0x50EE5, size: 0x8, addend: 0x0, symName: '__ZN104_$LT$core..iter..sources..from_fn..FromFn$LT$F$GT$$u20$as$u20$core..iter..traits..iterator..Iterator$GT$4next17h9036220b904feaf4E', symObjAddr: 0x0, symBinAddr: 0x100028A60, symSize: 0x480 }
  - { offsetInCU: 0x504, offset: 0x513CB, size: 0x8, addend: 0x0, symName: '__ZN104_$LT$core..iter..sources..from_fn..FromFn$LT$F$GT$$u20$as$u20$core..iter..traits..iterator..Iterator$GT$4next17h9036220b904feaf4E', symObjAddr: 0x0, symBinAddr: 0x100028A60, symSize: 0x480 }
  - { offsetInCU: 0xC66, offset: 0x51B2D, size: 0x8, addend: 0x0, symName: '__ZN4core3ptr27drop_in_place$LT$$RF$u8$GT$17h81dff941550820f4E', symObjAddr: 0x664, symBinAddr: 0x1000290C4, symSize: 0x4 }
  - { offsetInCU: 0xC80, offset: 0x51B47, size: 0x8, addend: 0x0, symName: '__ZN4core3ptr29drop_in_place$LT$$LP$$RP$$GT$17hcfcfd97e3ac28456E', symObjAddr: 0x668, symBinAddr: 0x1000290C8, symSize: 0x4 }
  - { offsetInCU: 0xC9A, offset: 0x51B61, size: 0x8, addend: 0x0, symName: '__ZN4core3ptr52drop_in_place$LT$core..num..error..ParseIntError$GT$17haf0e3139f0281c40E', symObjAddr: 0x66C, symBinAddr: 0x1000290CC, symSize: 0x4 }
  - { offsetInCU: 0x100A, offset: 0x51ED1, size: 0x8, addend: 0x0, symName: '__ZN68_$LT$core..num..error..ParseIntError$u20$as$u20$core..fmt..Debug$GT$3fmt17h3b458aa4abe6c7cdE', symObjAddr: 0x7EC, symBinAddr: 0x10002924C, symSize: 0x4C }
  - { offsetInCU: 0x11C0, offset: 0x52087, size: 0x8, addend: 0x0, symName: '__ZN4core4char7methods22_$LT$impl$u20$char$GT$16escape_debug_ext17h82310e70fb194c48E', symObjAddr: 0x670, symBinAddr: 0x1000290D0, symSize: 0xF8 }
  - { offsetInCU: 0x16AF, offset: 0x52576, size: 0x8, addend: 0x0, symName: '__ZN81_$LT$core..str..iter..Chars$u20$as$u20$core..iter..traits..iterator..Iterator$GT$5count17hc5fb0e645f62230aE', symObjAddr: 0xD04, symBinAddr: 0x100029764, symSize: 0x14 }
  - { offsetInCU: 0x16CC, offset: 0x52593, size: 0x8, addend: 0x0, symName: '__ZN81_$LT$core..str..iter..Chars$u20$as$u20$core..iter..traits..iterator..Iterator$GT$5count17hc5fb0e645f62230aE', symObjAddr: 0xD04, symBinAddr: 0x100029764, symSize: 0x14 }
  - { offsetInCU: 0x16E0, offset: 0x525A7, size: 0x8, addend: 0x0, symName: '__ZN81_$LT$core..str..iter..Chars$u20$as$u20$core..iter..traits..iterator..Iterator$GT$5count17hc5fb0e645f62230aE', symObjAddr: 0xD04, symBinAddr: 0x100029764, symSize: 0x14 }
  - { offsetInCU: 0x16F4, offset: 0x525BB, size: 0x8, addend: 0x0, symName: '__ZN81_$LT$core..str..iter..Chars$u20$as$u20$core..iter..traits..iterator..Iterator$GT$5count17hc5fb0e645f62230aE', symObjAddr: 0xD04, symBinAddr: 0x100029764, symSize: 0x14 }
  - { offsetInCU: 0x1708, offset: 0x525CF, size: 0x8, addend: 0x0, symName: '__ZN81_$LT$core..str..iter..Chars$u20$as$u20$core..iter..traits..iterator..Iterator$GT$5count17hc5fb0e645f62230aE', symObjAddr: 0xD04, symBinAddr: 0x100029764, symSize: 0x14 }
  - { offsetInCU: 0x171C, offset: 0x525E3, size: 0x8, addend: 0x0, symName: '__ZN81_$LT$core..str..iter..Chars$u20$as$u20$core..iter..traits..iterator..Iterator$GT$5count17hc5fb0e645f62230aE', symObjAddr: 0xD04, symBinAddr: 0x100029764, symSize: 0x14 }
  - { offsetInCU: 0x187E, offset: 0x52745, size: 0x8, addend: 0x0, symName: '__ZN80_$LT$core..str..pattern..StrSearcher$u20$as$u20$core..str..pattern..Searcher$GT$4next17h9567b3acaed3dc46E', symObjAddr: 0x838, symBinAddr: 0x100029298, symSize: 0x4CC }
  - { offsetInCU: 0x1A76, offset: 0x5293D, size: 0x8, addend: 0x0, symName: '__ZN81_$LT$core..str..pattern..CharSearcher$u20$as$u20$core..str..pattern..Searcher$GT$10next_match17hefca04d2d918e3a7E', symObjAddr: 0xD18, symBinAddr: 0x100029778, symSize: 0x1E4 }
  - { offsetInCU: 0x1E78, offset: 0x52D3F, size: 0x8, addend: 0x0, symName: '__ZN42_$LT$$RF$T$u20$as$u20$core..fmt..Debug$GT$3fmt17h02d0b99d338a89c9E', symObjAddr: 0x480, symBinAddr: 0x100028EE0, symSize: 0x10 }
  - { offsetInCU: 0x1E92, offset: 0x52D59, size: 0x8, addend: 0x0, symName: '__ZN42_$LT$$RF$T$u20$as$u20$core..fmt..Debug$GT$3fmt17h1f1e35f50cc82a95E', symObjAddr: 0x490, symBinAddr: 0x100028EF0, symSize: 0x1C }
  - { offsetInCU: 0x1ED7, offset: 0x52D9E, size: 0x8, addend: 0x0, symName: '__ZN42_$LT$$RF$T$u20$as$u20$core..fmt..Debug$GT$3fmt17h8943d6cd6e1424e0E', symObjAddr: 0x4AC, symBinAddr: 0x100028F0C, symSize: 0x30 }
  - { offsetInCU: 0x1F45, offset: 0x52E0C, size: 0x8, addend: 0x0, symName: '__ZN44_$LT$$RF$T$u20$as$u20$core..fmt..Display$GT$3fmt17h5d9d8bffb1ab2562E', symObjAddr: 0x4DC, symBinAddr: 0x100028F3C, symSize: 0x4C }
  - { offsetInCU: 0x1F9E, offset: 0x52E65, size: 0x8, addend: 0x0, symName: '__ZN45_$LT$$LP$$RP$$u20$as$u20$core..fmt..Debug$GT$3fmt17h60ff9fa7aecd7dc5E', symObjAddr: 0x528, symBinAddr: 0x100028F88, symSize: 0x14 }
  - { offsetInCU: 0x1FE8, offset: 0x52EAF, size: 0x8, addend: 0x0, symName: __ZN4core3fmt5Write10write_char17hf6b2c88ddef041e3E, symObjAddr: 0x53C, symBinAddr: 0x100028F9C, symSize: 0x118 }
  - { offsetInCU: 0x20BF, offset: 0x52F86, size: 0x8, addend: 0x0, symName: __ZN4core3fmt5Write9write_fmt17h9a4429fe233fcc97E, symObjAddr: 0x654, symBinAddr: 0x1000290B4, symSize: 0x10 }
  - { offsetInCU: 0x212B, offset: 0x52FF2, size: 0x8, addend: 0x0, symName: '__ZN50_$LT$$RF$mut$u20$T$u20$as$u20$core..fmt..Debug$GT$3fmt17h72d2fa85d1a84009E', symObjAddr: 0x768, symBinAddr: 0x1000291C8, symSize: 0x70 }
  - { offsetInCU: 0x21C3, offset: 0x5308A, size: 0x8, addend: 0x0, symName: '__ZN53_$LT$core..fmt..Error$u20$as$u20$core..fmt..Debug$GT$3fmt17hfa20d616f510f4acE', symObjAddr: 0x7D8, symBinAddr: 0x100029238, symSize: 0x14 }
  - { offsetInCU: 0x2478, offset: 0x5333F, size: 0x8, addend: 0x0, symName: '__ZN64_$LT$rustc_demangle..v0..Ident$u20$as$u20$core..fmt..Display$GT$3fmt17h57344f462d426a6aE', symObjAddr: 0x1A80, symBinAddr: 0x10002A4A4, symSize: 0x464 }
  - { offsetInCU: 0x2829, offset: 0x536F0, size: 0x8, addend: 0x0, symName: __ZN14rustc_demangle2v010HexNibbles14try_parse_uint17haf6936cf982ca95cE, symObjAddr: 0x1EE4, symBinAddr: 0x10002A908, symSize: 0x190 }
  - { offsetInCU: 0x298E, offset: 0x53855, size: 0x8, addend: 0x0, symName: __ZN14rustc_demangle2v06Parser11hex_nibbles17hd8e36535abc9871fE, symObjAddr: 0x2074, symBinAddr: 0x10002AA98, symSize: 0xE0 }
  - { offsetInCU: 0x2A76, offset: 0x5393D, size: 0x8, addend: 0x0, symName: __ZN14rustc_demangle2v06Parser10integer_6217h74fce919831ab542E, symObjAddr: 0x2154, symBinAddr: 0x10002AB78, symSize: 0xE8 }
  - { offsetInCU: 0x2A8D, offset: 0x53954, size: 0x8, addend: 0x0, symName: __ZN14rustc_demangle2v06Parser10integer_6217h74fce919831ab542E, symObjAddr: 0x2154, symBinAddr: 0x10002AB78, symSize: 0xE8 }
  - { offsetInCU: 0x2AA2, offset: 0x53969, size: 0x8, addend: 0x0, symName: __ZN14rustc_demangle2v06Parser10integer_6217h74fce919831ab542E, symObjAddr: 0x2154, symBinAddr: 0x10002AB78, symSize: 0xE8 }
  - { offsetInCU: 0x2BD5, offset: 0x53A9C, size: 0x8, addend: 0x0, symName: __ZN14rustc_demangle2v06Parser13disambiguator17h7ceda7c047a6474bE, symObjAddr: 0x223C, symBinAddr: 0x10002AC60, symSize: 0x110 }
  - { offsetInCU: 0x2BF9, offset: 0x53AC0, size: 0x8, addend: 0x0, symName: __ZN14rustc_demangle2v06Parser13disambiguator17h7ceda7c047a6474bE, symObjAddr: 0x223C, symBinAddr: 0x10002AC60, symSize: 0x110 }
  - { offsetInCU: 0x2C0E, offset: 0x53AD5, size: 0x8, addend: 0x0, symName: __ZN14rustc_demangle2v06Parser13disambiguator17h7ceda7c047a6474bE, symObjAddr: 0x223C, symBinAddr: 0x10002AC60, symSize: 0x110 }
  - { offsetInCU: 0x2DAE, offset: 0x53C75, size: 0x8, addend: 0x0, symName: __ZN14rustc_demangle2v06Parser9namespace17h986728428d0f08d6E, symObjAddr: 0x234C, symBinAddr: 0x10002AD70, symSize: 0x54 }
  - { offsetInCU: 0x2DD9, offset: 0x53CA0, size: 0x8, addend: 0x0, symName: __ZN14rustc_demangle2v06Parser9namespace17h986728428d0f08d6E, symObjAddr: 0x234C, symBinAddr: 0x10002AD70, symSize: 0x54 }
  - { offsetInCU: 0x2E32, offset: 0x53CF9, size: 0x8, addend: 0x0, symName: __ZN14rustc_demangle2v06Parser5ident17h949c318c7a4efc59E, symObjAddr: 0x23A0, symBinAddr: 0x10002ADC4, symSize: 0x258 }
  - { offsetInCU: 0x332F, offset: 0x541F6, size: 0x8, addend: 0x0, symName: '__ZN14rustc_demangle2v07Printer10print_type28_$u7b$$u7b$closure$u7d$$u7d$17ha36e0b0aa8dc719eE', symObjAddr: 0x4578, symBinAddr: 0x10002CF9C, symSize: 0x490 }
  - { offsetInCU: 0x3A2E, offset: 0x548F5, size: 0x8, addend: 0x0, symName: __ZN14rustc_demangle2v07Printer17skipping_printing17h3a4ca3883c21b445E, symObjAddr: 0x25F8, symBinAddr: 0x10002B01C, symSize: 0x60 }
  - { offsetInCU: 0x3ACE, offset: 0x54995, size: 0x8, addend: 0x0, symName: __ZN14rustc_demangle2v07Printer13print_backref17h44ddaceb9923444cE, symObjAddr: 0x2658, symBinAddr: 0x10002B07C, symSize: 0x1CC }
  - { offsetInCU: 0x3D1F, offset: 0x54BE6, size: 0x8, addend: 0x0, symName: __ZN14rustc_demangle2v07Printer13print_backref17hc45b77cb0c4bd107E, symObjAddr: 0x2824, symBinAddr: 0x10002B248, symSize: 0x1D4 }
  - { offsetInCU: 0x3F70, offset: 0x54E37, size: 0x8, addend: 0x0, symName: __ZN14rustc_demangle2v07Printer13print_backref17he1a699d56428c1e3E, symObjAddr: 0x29F8, symBinAddr: 0x10002B41C, symSize: 0x1D4 }
  - { offsetInCU: 0x41C1, offset: 0x55088, size: 0x8, addend: 0x0, symName: __ZN14rustc_demangle2v07Printer26print_quoted_escaped_chars17h0d27a2ee286edb04E, symObjAddr: 0x2BCC, symBinAddr: 0x10002B5F0, symSize: 0x12C }
  - { offsetInCU: 0x42F8, offset: 0x551BF, size: 0x8, addend: 0x0, symName: __ZN14rustc_demangle2v07Printer25print_lifetime_from_index17h61830f8e26e5f9a1E, symObjAddr: 0x2CF8, symBinAddr: 0x10002B71C, symSize: 0x118 }
  - { offsetInCU: 0x4454, offset: 0x5531B, size: 0x8, addend: 0x0, symName: __ZN14rustc_demangle2v07Printer9in_binder17h1134e3d2dbdb6b9fE, symObjAddr: 0x2E10, symBinAddr: 0x10002B834, symSize: 0x25C }
  - { offsetInCU: 0x47CA, offset: 0x55691, size: 0x8, addend: 0x0, symName: __ZN14rustc_demangle2v07Printer9in_binder17h3133f09d6eb5cef8E, symObjAddr: 0x306C, symBinAddr: 0x10002BA90, symSize: 0x318 }
  - { offsetInCU: 0x4D2A, offset: 0x55BF1, size: 0x8, addend: 0x0, symName: __ZN14rustc_demangle2v07Printer14print_sep_list17h2c33d68ef61c524cE, symObjAddr: 0x3384, symBinAddr: 0x10002BDA8, symSize: 0xB0 }
  - { offsetInCU: 0x4E2D, offset: 0x55CF4, size: 0x8, addend: 0x0, symName: __ZN14rustc_demangle2v07Printer14print_sep_list17h45d2d8ae0b48ab47E, symObjAddr: 0x3434, symBinAddr: 0x10002BE58, symSize: 0x2A8 }
  - { offsetInCU: 0x5180, offset: 0x56047, size: 0x8, addend: 0x0, symName: __ZN14rustc_demangle2v07Printer14print_sep_list17h767194b648be750eE, symObjAddr: 0x36DC, symBinAddr: 0x10002C100, symSize: 0xA0 }
  - { offsetInCU: 0x526E, offset: 0x56135, size: 0x8, addend: 0x0, symName: __ZN14rustc_demangle2v07Printer14print_sep_list17h81e307d4a3946aa9E, symObjAddr: 0x377C, symBinAddr: 0x10002C1A0, symSize: 0xAC }
  - { offsetInCU: 0x535C, offset: 0x56223, size: 0x8, addend: 0x0, symName: __ZN14rustc_demangle2v07Printer14print_sep_list17h90f666a34097fd93E, symObjAddr: 0x3828, symBinAddr: 0x10002C24C, symSize: 0xA4 }
  - { offsetInCU: 0x545F, offset: 0x56326, size: 0x8, addend: 0x0, symName: __ZN14rustc_demangle2v07Printer10print_path17hc876b1aa1e235e5eE, symObjAddr: 0x38CC, symBinAddr: 0x10002C2F0, symSize: 0x680 }
  - { offsetInCU: 0x5A8C, offset: 0x56953, size: 0x8, addend: 0x0, symName: __ZN14rustc_demangle2v07Printer17print_generic_arg17ha1e0b1bbb1e62476E, symObjAddr: 0x3F4C, symBinAddr: 0x10002C970, symSize: 0x164 }
  - { offsetInCU: 0x5D2D, offset: 0x56BF4, size: 0x8, addend: 0x0, symName: __ZN14rustc_demangle2v07Printer10print_type17hddda30e9fe26fa96E, symObjAddr: 0x40B0, symBinAddr: 0x10002CAD4, symSize: 0x4C8 }
  - { offsetInCU: 0x627B, offset: 0x57142, size: 0x8, addend: 0x0, symName: __ZN14rustc_demangle2v07Printer30print_path_maybe_open_generics17h27af5d655753f613E, symObjAddr: 0x4A08, symBinAddr: 0x10002D42C, symSize: 0x28C }
  - { offsetInCU: 0x66F5, offset: 0x575BC, size: 0x8, addend: 0x0, symName: __ZN14rustc_demangle2v07Printer15print_dyn_trait17hbfa8fe8e3ebe3202E, symObjAddr: 0x4C94, symBinAddr: 0x10002D6B8, symSize: 0x268 }
  - { offsetInCU: 0x68AC, offset: 0x57773, size: 0x8, addend: 0x0, symName: __ZN14rustc_demangle2v07Printer11print_const17hdc8c819927712c8dE, symObjAddr: 0x4EFC, symBinAddr: 0x10002D920, symSize: 0x5E4 }
  - { offsetInCU: 0x6F4A, offset: 0x57E11, size: 0x8, addend: 0x0, symName: __ZN14rustc_demangle2v07Printer16print_const_uint17hb411d0ef6abf636cE, symObjAddr: 0x54E0, symBinAddr: 0x10002DF04, symSize: 0x1C8 }
  - { offsetInCU: 0x7144, offset: 0x5800B, size: 0x8, addend: 0x0, symName: __ZN14rustc_demangle2v07Printer23print_const_str_literal17h4ee3b895d19e919aE, symObjAddr: 0x56A8, symBinAddr: 0x10002E0CC, symSize: 0x284 }
  - { offsetInCU: 0x751A, offset: 0x583E1, size: 0x8, addend: 0x0, symName: '__ZN83_$LT$rustc_demangle..SizeLimitedFmtAdapter$LT$F$GT$$u20$as$u20$core..fmt..Write$GT$9write_str17hd667e6e05ebe3479E', symObjAddr: 0x660C, symBinAddr: 0x10002EFE8, symSize: 0x3C }
  - { offsetInCU: 0x75CD, offset: 0x58494, size: 0x8, addend: 0x0, symName: '__ZN71_$LT$rustc_demangle..legacy..Demangle$u20$as$u20$core..fmt..Display$GT$3fmt17h84bd506afb847433E', symObjAddr: 0xEFC, symBinAddr: 0x10002995C, symSize: 0xB48 }
  - { offsetInCU: 0x8520, offset: 0x593E7, size: 0x8, addend: 0x0, symName: __ZN14rustc_demangle8demangle17h0cc3e89456a7953bE, symObjAddr: 0x592C, symBinAddr: 0x10002E350, symSize: 0xC48 }
  - { offsetInCU: 0x9476, offset: 0x5A33D, size: 0x8, addend: 0x0, symName: __ZN14rustc_demangle12try_demangle17h695fed86fa1c3984E, symObjAddr: 0x6574, symBinAddr: 0x10002EF98, symSize: 0x50 }
  - { offsetInCU: 0x94A9, offset: 0x5A370, size: 0x8, addend: 0x0, symName: '__ZN63_$LT$rustc_demangle..Demangle$u20$as$u20$core..fmt..Display$GT$3fmt17ha1a99c1b0dda3c25E', symObjAddr: 0x6648, symBinAddr: 0x10002F024, symSize: 0x180 }
  - { offsetInCU: 0x9560, offset: 0x5A427, size: 0x8, addend: 0x0, symName: '__ZN71_$LT$rustc_demangle..SizeLimitExhausted$u20$as$u20$core..fmt..Debug$GT$3fmt17h1c43684535a760bcE', symObjAddr: 0x67CC, symBinAddr: 0x10002F1A4, symSize: 0x14 }
  - { offsetInCU: 0x75, offset: 0x5A4B8, size: 0x8, addend: 0x0, symName: '__ZN4core3ptr37drop_in_place$LT$core..fmt..Error$GT$17h4091e8a8d9d4b537E', symObjAddr: 0x3C, symBinAddr: 0x10002F1B8, symSize: 0x4 }
  - { offsetInCU: 0xEB, offset: 0x5A52E, size: 0x8, addend: 0x0, symName: '__ZN69_$LT$core..alloc..layout..LayoutError$u20$as$u20$core..fmt..Debug$GT$3fmt17h9fd5365f37311e23E', symObjAddr: 0x9C, symBinAddr: 0x10002F1BC, symSize: 0x14 }
  - { offsetInCU: 0x3A8, offset: 0x5A7EB, size: 0x8, addend: 0x0, symName: '__ZN5alloc7raw_vec19RawVec$LT$T$C$A$GT$16reserve_for_push17h55049baebc4c4afcE', symObjAddr: 0x168, symBinAddr: 0x10002F1D0, symSize: 0xB8 }
  - { offsetInCU: 0x5D9, offset: 0x5AA1C, size: 0x8, addend: 0x0, symName: '__ZN5alloc7raw_vec19RawVec$LT$T$C$A$GT$7reserve21do_reserve_and_handle17h9acea87038823536E', symObjAddr: 0xB0, symBinAddr: 0x10003765C, symSize: 0xB8 }
  - { offsetInCU: 0x718, offset: 0x5AB5B, size: 0x8, addend: 0x0, symName: __ZN5alloc7raw_vec11finish_grow17h10e5250f86ba4d45E, symObjAddr: 0x220, symBinAddr: 0x10002F288, symSize: 0x98 }
  - { offsetInCU: 0x79A, offset: 0x5ABDD, size: 0x8, addend: 0x0, symName: __ZN5alloc7raw_vec17capacity_overflow17h386216d6b0eee3c7E, symObjAddr: 0x2B8, symBinAddr: 0x10002F320, symSize: 0x3C }
  - { offsetInCU: 0x850, offset: 0x5AC93, size: 0x8, addend: 0x0, symName: __ZN5alloc5alloc18handle_alloc_error17hfb942afd7716c7bbE, symObjAddr: 0x2F4, symBinAddr: 0x100037714, symSize: 0x18 }
  - { offsetInCU: 0x9AA, offset: 0x5ADED, size: 0x8, addend: 0x0, symName: '__ZN98_$LT$alloc..string..String$u20$as$u20$core..convert..From$LT$alloc..borrow..Cow$LT$str$GT$$GT$$GT$4from17h84924659f58f1fd5E', symObjAddr: 0x3B70, symBinAddr: 0x10002F850, symSize: 0xA8 }
  - { offsetInCU: 0xAF7, offset: 0x5AF3A, size: 0x8, addend: 0x0, symName: __ZN5alloc6string6String15from_utf8_lossy17h0cb4fa0c82caa6c0E, symObjAddr: 0x246C, symBinAddr: 0x10002F618, symSize: 0x238 }
  - { offsetInCU: 0x10DF, offset: 0x5B522, size: 0x8, addend: 0x0, symName: '__ZN93_$LT$alloc..collections..btree..mem..replace..PanicGuard$u20$as$u20$core..ops..drop..Drop$GT$4drop17hc197465dad3fd249E', symObjAddr: 0xC84, symBinAddr: 0x10002F35C, symSize: 0x4 }
  - { offsetInCU: 0x1123, offset: 0x5B566, size: 0x8, addend: 0x0, symName: '__ZN72_$LT$$RF$str$u20$as$u20$alloc..ffi..c_str..CString..new..SpecNewImpl$GT$13spec_new_impl17h9ad35659b0530fdfE', symObjAddr: 0xD0C, symBinAddr: 0x10002F360, symSize: 0x0 }
  - { offsetInCU: 0x12FA, offset: 0x5B73D, size: 0x8, addend: 0x0, symName: __ZN5alloc3ffi5c_str7CString19_from_vec_unchecked17h3af48958d79d285fE, symObjAddr: 0xFB4, symBinAddr: 0x10002F49C, symSize: 0x17C }
  - { offsetInCU: 0x15F2, offset: 0x5BA35, size: 0x8, addend: 0x0, symName: __ZN5alloc4sync32arcinner_layout_for_value_layout17hd5634159418e281dE, symObjAddr: 0x3DC0, symBinAddr: 0x10002F8F8, symSize: 0x84 }
  - { offsetInCU: 0x1E, offset: 0x5BBC8, size: 0x8, addend: 0x0, symName: __ZN4core3ops8function6FnOnce9call_once17h2fc18b8273c3e2aeE, symObjAddr: 0x0, symBinAddr: 0x10002F97C, symSize: 0x8 }
  - { offsetInCU: 0x42, offset: 0x5BBEC, size: 0x8, addend: 0x0, symName: '__ZN4core3ptr26drop_in_place$LT$usize$GT$17h7a7717dbc920b16eE', symObjAddr: 0xC, symBinAddr: 0x10002F984, symSize: 0x4 }
  - { offsetInCU: 0x5C, offset: 0x5BC06, size: 0x8, addend: 0x0, symName: '__ZN4core3ptr37drop_in_place$LT$core..fmt..Error$GT$17h0c87a74f85add577E', symObjAddr: 0x10, symBinAddr: 0x10002F988, symSize: 0x4 }
  - { offsetInCU: 0x2FC, offset: 0x5BEA6, size: 0x8, addend: 0x0, symName: '__ZN42_$LT$str$u20$as$u20$core..fmt..Display$GT$3fmt17h2598f80b21a46e79E', symObjAddr: 0xEC2C, symBinAddr: 0x100031CE0, symSize: 0x14 }
  - { offsetInCU: 0x3A4, offset: 0x5BF4E, size: 0x8, addend: 0x0, symName: __ZN4core3fmt9Formatter12pad_integral17h43868fb31eda50e4E, symObjAddr: 0xCCE4, symBinAddr: 0x100030C90, symSize: 0x3CC }
  - { offsetInCU: 0x621, offset: 0x5C1CB, size: 0x8, addend: 0x0, symName: __ZN4core3fmt9Formatter3pad17h5d4c27b0a3d9761dE, symObjAddr: 0xD12C, symBinAddr: 0x1000310D8, symSize: 0x3D4 }
  - { offsetInCU: 0xA27, offset: 0x5C5D1, size: 0x8, addend: 0x0, symName: __ZN4core3fmt9Formatter9write_str17h89300e870df51fcaE, symObjAddr: 0xD8FC, symBinAddr: 0x1000314AC, symSize: 0x0 }
  - { offsetInCU: 0xA3A, offset: 0x5C5E4, size: 0x8, addend: 0x0, symName: __ZN4core3fmt9Formatter9write_fmt17h003865e67d44b3dbE, symObjAddr: 0xD90C, symBinAddr: 0x1000314BC, symSize: 0x0 }
  - { offsetInCU: 0xA4D, offset: 0x5C5F7, size: 0x8, addend: 0x0, symName: __ZN4core3fmt9Formatter12debug_struct17h17ba7f36491fbdd9E, symObjAddr: 0xD91C, symBinAddr: 0x1000314CC, symSize: 0x3C }
  - { offsetInCU: 0xA8B, offset: 0x5C635, size: 0x8, addend: 0x0, symName: __ZN4core3fmt9Formatter26debug_struct_field1_finish17h9e8c4f23c979b8ddE, symObjAddr: 0xD958, symBinAddr: 0x100031508, symSize: 0xD8 }
  - { offsetInCU: 0xB44, offset: 0x5C6EE, size: 0x8, addend: 0x0, symName: __ZN4core3fmt9Formatter26debug_struct_field2_finish17h5757c60f0dd6c897E, symObjAddr: 0xDA30, symBinAddr: 0x1000315E0, symSize: 0x10C }
  - { offsetInCU: 0xBFD, offset: 0x5C7A7, size: 0x8, addend: 0x0, symName: __ZN4core3fmt9Formatter11debug_tuple17h7cadcd6935b70055E, symObjAddr: 0xE06C, symBinAddr: 0x1000316EC, symSize: 0x50 }
  - { offsetInCU: 0xC50, offset: 0x5C7FA, size: 0x8, addend: 0x0, symName: __ZN4core3fmt9Formatter25debug_tuple_field1_finish17h08f545fa07ea98c0E, symObjAddr: 0xE0BC, symBinAddr: 0x10003173C, symSize: 0xEC }
  - { offsetInCU: 0xD07, offset: 0x5C8B1, size: 0x8, addend: 0x0, symName: __ZN4core3fmt9Formatter25debug_tuple_field2_finish17hfb36f348c6144c6dE, symObjAddr: 0xE1A8, symBinAddr: 0x100031828, symSize: 0x10C }
  - { offsetInCU: 0xDBE, offset: 0x5C968, size: 0x8, addend: 0x0, symName: __ZN4core3fmt9Formatter10debug_list17h9df8eac4a0c6ad78E, symObjAddr: 0xE798, symBinAddr: 0x100031934, symSize: 0x48 }
  - { offsetInCU: 0xE52, offset: 0x5C9FC, size: 0x8, addend: 0x0, symName: __ZN4core3fmt8builders11DebugStruct5field17h8770fdd168a3f263E, symObjAddr: 0xA064, symBinAddr: 0x1000304CC, symSize: 0x1B4 }
  - { offsetInCU: 0x1055, offset: 0x5CBFF, size: 0x8, addend: 0x0, symName: __ZN4core3fmt8builders11DebugStruct6finish17h74ea1c35a6b93dd9E, symObjAddr: 0xA2E4, symBinAddr: 0x100030680, symSize: 0x80 }
  - { offsetInCU: 0x1133, offset: 0x5CCDD, size: 0x8, addend: 0x0, symName: '__ZN68_$LT$core..fmt..builders..PadAdapter$u20$as$u20$core..fmt..Write$GT$9write_str17h7a210e8704ee12feE', symObjAddr: 0x9DD8, symBinAddr: 0x100030240, symSize: 0x210 }
  - { offsetInCU: 0x131A, offset: 0x5CEC4, size: 0x8, addend: 0x0, symName: '__ZN68_$LT$core..fmt..builders..PadAdapter$u20$as$u20$core..fmt..Write$GT$10write_char17h470531fd840231c5E', symObjAddr: 0x9FE8, symBinAddr: 0x100030450, symSize: 0x7C }
  - { offsetInCU: 0x137D, offset: 0x5CF27, size: 0x8, addend: 0x0, symName: __ZN4core3fmt8builders10DebugTuple5field17hb41a391a571227aeE, symObjAddr: 0xA364, symBinAddr: 0x100030700, symSize: 0x148 }
  - { offsetInCU: 0x14F7, offset: 0x5D0A1, size: 0x8, addend: 0x0, symName: __ZN4core3fmt8builders10DebugTuple6finish17h742b69f653030288E, symObjAddr: 0xA4AC, symBinAddr: 0x100030848, symSize: 0xA8 }
  - { offsetInCU: 0x15FD, offset: 0x5D1A7, size: 0x8, addend: 0x0, symName: __ZN4core3fmt8builders8DebugSet5entry17h67741ff3ff93934dE, symObjAddr: 0xA554, symBinAddr: 0x1000308F0, symSize: 0x0 }
  - { offsetInCU: 0x17A6, offset: 0x5D350, size: 0x8, addend: 0x0, symName: __ZN4core3fmt8builders9DebugList6finish17ha3df65a809893391E, symObjAddr: 0xA6BC, symBinAddr: 0x100030A2C, symSize: 0x2C }
  - { offsetInCU: 0x182E, offset: 0x5D3D8, size: 0x8, addend: 0x0, symName: '__ZN57_$LT$core..fmt..Formatter$u20$as$u20$core..fmt..Write$GT$10write_char17hc9601d4456a4cfe6E', symObjAddr: 0xE880, symBinAddr: 0x10003197C, symSize: 0x10 }
  - { offsetInCU: 0x185F, offset: 0x5D409, size: 0x8, addend: 0x0, symName: __ZN4core3fmt5Write9write_fmt17hf78079f3e66f3ac7E, symObjAddr: 0xCAA0, symBinAddr: 0x100030A58, symSize: 0x10 }
  - { offsetInCU: 0x1952, offset: 0x5D4FC, size: 0x8, addend: 0x0, symName: '__ZN4core3fmt3num3imp51_$LT$impl$u20$core..fmt..Display$u20$for$u20$u8$GT$3fmt17h12b930e1f6c300f0E', symObjAddr: 0x19C08, symBinAddr: 0x1000348B0, symSize: 0xB0 }
  - { offsetInCU: 0x19F8, offset: 0x5D5A2, size: 0x8, addend: 0x0, symName: '__ZN4core3fmt3num3imp52_$LT$impl$u20$core..fmt..Display$u20$for$u20$i32$GT$3fmt17h76c6428bcf07a2b8E', symObjAddr: 0x19F28, symBinAddr: 0x100034960, symSize: 0x158 }
  - { offsetInCU: 0x1A9C, offset: 0x5D646, size: 0x8, addend: 0x0, symName: '__ZN4core3fmt3num3imp52_$LT$impl$u20$core..fmt..Display$u20$for$u20$u32$GT$3fmt17h2a95f44e2163968aE', symObjAddr: 0x1A080, symBinAddr: 0x100034AB8, symSize: 0x140 }
  - { offsetInCU: 0x1B40, offset: 0x5D6EA, size: 0x8, addend: 0x0, symName: '__ZN4core3fmt3num3imp52_$LT$impl$u20$core..fmt..Display$u20$for$u20$u64$GT$3fmt17hc892facebfa4e2beE', symObjAddr: 0x1A310, symBinAddr: 0x100034BF8, symSize: 0x0 }
  - { offsetInCU: 0x1BF7, offset: 0x5D7A1, size: 0x8, addend: 0x0, symName: '__ZN4core3fmt3num52_$LT$impl$u20$core..fmt..LowerHex$u20$for$u20$i8$GT$3fmt17h11b681c95582bc68E', symObjAddr: 0x189A4, symBinAddr: 0x1000342E4, symSize: 0x0 }
  - { offsetInCU: 0x1CE3, offset: 0x5D88D, size: 0x8, addend: 0x0, symName: '__ZN4core3fmt3num52_$LT$impl$u20$core..fmt..UpperHex$u20$for$u20$i8$GT$3fmt17h17bcc8de80bfd257E', symObjAddr: 0x18A40, symBinAddr: 0x100034380, symSize: 0x0 }
  - { offsetInCU: 0x1DE1, offset: 0x5D98B, size: 0x8, addend: 0x0, symName: '__ZN4core3fmt3num53_$LT$impl$u20$core..fmt..LowerHex$u20$for$u20$i32$GT$3fmt17he683b1062fdd7281E', symObjAddr: 0x18E44, symBinAddr: 0x10003441C, symSize: 0x0 }
  - { offsetInCU: 0x1ED7, offset: 0x5DA81, size: 0x8, addend: 0x0, symName: '__ZN4core3fmt3num53_$LT$impl$u20$core..fmt..UpperHex$u20$for$u20$i32$GT$3fmt17h99695473f33e8d74E', symObjAddr: 0x18EE0, symBinAddr: 0x1000344B8, symSize: 0x0 }
  - { offsetInCU: 0x1FBB, offset: 0x5DB65, size: 0x8, addend: 0x0, symName: '__ZN4core3fmt3num53_$LT$impl$u20$core..fmt..LowerHex$u20$for$u20$i64$GT$3fmt17h6f7fa4517ea23db4E', symObjAddr: 0x19094, symBinAddr: 0x100034554, symSize: 0x0 }
  - { offsetInCU: 0x20B1, offset: 0x5DC5B, size: 0x8, addend: 0x0, symName: '__ZN4core3fmt3num53_$LT$impl$u20$core..fmt..UpperHex$u20$for$u20$i64$GT$3fmt17h98497cab22b3bcedE', symObjAddr: 0x19130, symBinAddr: 0x1000345F0, symSize: 0x0 }
  - { offsetInCU: 0x219B, offset: 0x5DD45, size: 0x8, addend: 0x0, symName: '__ZN4core3fmt3num52_$LT$impl$u20$core..fmt..Debug$u20$for$u20$usize$GT$3fmt17h60e009952a799d6fE', symObjAddr: 0x19888, symBinAddr: 0x10003468C, symSize: 0x224 }
  - { offsetInCU: 0x236D, offset: 0x5DF17, size: 0x8, addend: 0x0, symName: '__ZN59_$LT$core..fmt..Arguments$u20$as$u20$core..fmt..Display$GT$3fmt17h4e099ad254c97e3fE', symObjAddr: 0xCABC, symBinAddr: 0x100030A68, symSize: 0xC }
  - { offsetInCU: 0x239B, offset: 0x5DF45, size: 0x8, addend: 0x0, symName: __ZN4core3fmt5write17hd6b114b153a5b603E, symObjAddr: 0xCAC8, symBinAddr: 0x100030A74, symSize: 0x21C }
  - { offsetInCU: 0x25A7, offset: 0x5E151, size: 0x8, addend: 0x0, symName: __ZN4core3fmt9Formatter12pad_integral12write_prefix17hae3e15b7a026c1e1E, symObjAddr: 0xD0B0, symBinAddr: 0x10003105C, symSize: 0x7C }
  - { offsetInCU: 0x25C8, offset: 0x5E172, size: 0x8, addend: 0x0, symName: '__ZN40_$LT$str$u20$as$u20$core..fmt..Debug$GT$3fmt17h05e36c1793c68502E', symObjAddr: 0xE8D8, symBinAddr: 0x10003198C, symSize: 0x354 }
  - { offsetInCU: 0x2905, offset: 0x5E4AF, size: 0x8, addend: 0x0, symName: '__ZN41_$LT$char$u20$as$u20$core..fmt..Debug$GT$3fmt17hac8487db00e1efaaE', symObjAddr: 0xEC40, symBinAddr: 0x100031CF4, symSize: 0x164 }
  - { offsetInCU: 0x2A1D, offset: 0x5E5C7, size: 0x8, addend: 0x0, symName: '__ZN43_$LT$char$u20$as$u20$core..fmt..Display$GT$3fmt17h490b6e11fa7baefcE', symObjAddr: 0xEDA4, symBinAddr: 0x100031E58, symSize: 0xF0 }
  - { offsetInCU: 0x2AA2, offset: 0x5E64C, size: 0x8, addend: 0x0, symName: __ZN4core3fmt17pointer_fmt_inner17h19e5bb3fd4ab8e63E, symObjAddr: 0xEE94, symBinAddr: 0x100031F48, symSize: 0xE0 }
  - { offsetInCU: 0x2B94, offset: 0x5E73E, size: 0x8, addend: 0x0, symName: '__ZN42_$LT$$RF$T$u20$as$u20$core..fmt..Debug$GT$3fmt17hd5ee604578b9e51bE', symObjAddr: 0x1B338, symBinAddr: 0x100034D38, symSize: 0x10 }
  - { offsetInCU: 0x2BB4, offset: 0x5E75E, size: 0x8, addend: 0x0, symName: '__ZN44_$LT$$RF$T$u20$as$u20$core..fmt..Display$GT$3fmt17he472e34eec7b69baE', symObjAddr: 0x1B358, symBinAddr: 0x100034D48, symSize: 0x10 }
  - { offsetInCU: 0x2BF5, offset: 0x5E79F, size: 0x8, addend: 0x0, symName: __ZN4core3ops8function6FnOnce9call_once17h2fc18b8273c3e2aeE, symObjAddr: 0x0, symBinAddr: 0x10002F97C, symSize: 0x8 }
  - { offsetInCU: 0x2C12, offset: 0x5E7BC, size: 0x8, addend: 0x0, symName: __ZN4core3ops8function6FnOnce9call_once17h2fc18b8273c3e2aeE, symObjAddr: 0x0, symBinAddr: 0x10002F97C, symSize: 0x8 }
  - { offsetInCU: 0x2C26, offset: 0x5E7D0, size: 0x8, addend: 0x0, symName: __ZN4core3ops8function6FnOnce9call_once17h2fc18b8273c3e2aeE, symObjAddr: 0x0, symBinAddr: 0x10002F97C, symSize: 0x8 }
  - { offsetInCU: 0x2C77, offset: 0x5E821, size: 0x8, addend: 0x0, symName: '__ZN71_$LT$core..ops..range..Range$LT$Idx$GT$$u20$as$u20$core..fmt..Debug$GT$3fmt17h3f76b62adc9d286cE', symObjAddr: 0x5E18, symBinAddr: 0x10002FB90, symSize: 0x7C }
  - { offsetInCU: 0x2FF2, offset: 0x5EB9C, size: 0x8, addend: 0x0, symName: '__ZN4core3num21_$LT$impl$u20$u32$GT$14from_str_radix17h394c62fb74beb1eeE', symObjAddr: 0x16B7C, symBinAddr: 0x1000341FC, symSize: 0x4 }
  - { offsetInCU: 0x304C, offset: 0x5EBF6, size: 0x8, addend: 0x0, symName: __ZN4core3num14from_str_radix17h4ec1768767e33d47E, symObjAddr: 0x4F2C, symBinAddr: 0x10002F98C, symSize: 0x204 }
  - { offsetInCU: 0x337F, offset: 0x5EF29, size: 0x8, addend: 0x0, symName: '__ZN4core3num60_$LT$impl$u20$core..str..traits..FromStr$u20$for$u20$u64$GT$8from_str17hd0d15250bb7eb7bfE', symObjAddr: 0x17040, symBinAddr: 0x100034200, symSize: 0x0 }
  - { offsetInCU: 0x38D6, offset: 0x5F480, size: 0x8, addend: 0x0, symName: __ZN4core5slice5index26slice_start_index_len_fail17h1383b33a2da6e494E, symObjAddr: 0xF928, symBinAddr: 0x100037AAC, symSize: 0x50 }
  - { offsetInCU: 0x3925, offset: 0x5F4CF, size: 0x8, addend: 0x0, symName: __ZN4core5slice5index24slice_end_index_len_fail17hdfd98610b54f8a6cE, symObjAddr: 0xF978, symBinAddr: 0x100037AFC, symSize: 0x50 }
  - { offsetInCU: 0x3974, offset: 0x5F51E, size: 0x8, addend: 0x0, symName: __ZN4core5slice5index22slice_index_order_fail17h86791e9ce894994cE, symObjAddr: 0xF9C8, symBinAddr: 0x100037B4C, symSize: 0x50 }
  - { offsetInCU: 0x3BF1, offset: 0x5F79B, size: 0x8, addend: 0x0, symName: __ZN4core5slice6memchr14memchr_aligned17hb74c3f27164144f7E, symObjAddr: 0xF058, symBinAddr: 0x100032028, symSize: 0xDC }
  - { offsetInCU: 0x3C08, offset: 0x5F7B2, size: 0x8, addend: 0x0, symName: __ZN4core5slice6memchr14memchr_aligned17hb74c3f27164144f7E, symObjAddr: 0xF058, symBinAddr: 0x100032028, symSize: 0xDC }
  - { offsetInCU: 0x3C1C, offset: 0x5F7C6, size: 0x8, addend: 0x0, symName: __ZN4core5slice6memchr14memchr_aligned17hb74c3f27164144f7E, symObjAddr: 0xF058, symBinAddr: 0x100032028, symSize: 0xDC }
  - { offsetInCU: 0x3CA0, offset: 0x5F84A, size: 0x8, addend: 0x0, symName: __ZN4core5slice6memchr7memrchr17h1a92be114b283e94E, symObjAddr: 0xF134, symBinAddr: 0x100032104, symSize: 0x124 }
  - { offsetInCU: 0x404F, offset: 0x5FBF9, size: 0x8, addend: 0x0, symName: __ZN4core6option13expect_failed17hfec6dc9676550c71E, symObjAddr: 0x964C, symBinAddr: 0x100037770, symSize: 0x48 }
  - { offsetInCU: 0x40E0, offset: 0x5FC8A, size: 0x8, addend: 0x0, symName: '__ZN4core4char7methods22_$LT$impl$u20$char$GT$16escape_debug_ext17h82310e70fb194c48E', symObjAddr: 0x651C, symBinAddr: 0x10002FC48, symSize: 0x208 }
  - { offsetInCU: 0x4344, offset: 0x5FEEE, size: 0x8, addend: 0x0, symName: __ZN4core4char13EscapeUnicode3new17h6190fc81da3cb529E, symObjAddr: 0x6724, symBinAddr: 0x10002FE50, symSize: 0xD4 }
  - { offsetInCU: 0x4439, offset: 0x5FFE3, size: 0x8, addend: 0x0, symName: __ZN4core4char11EscapeDebug9backslash17h52b112fde1501a0dE, symObjAddr: 0x6890, symBinAddr: 0x10002FF24, symSize: 0x1C }
  - { offsetInCU: 0x444C, offset: 0x5FFF6, size: 0x8, addend: 0x0, symName: __ZN4core4char11EscapeDebug5clear17ha4dfdd4c015d4032E, symObjAddr: 0x68AC, symBinAddr: 0x10002FF40, symSize: 0xC }
  - { offsetInCU: 0x4463, offset: 0x6000D, size: 0x8, addend: 0x0, symName: __ZN4core4char11EscapeDebug5clear17ha4dfdd4c015d4032E, symObjAddr: 0x68AC, symBinAddr: 0x10002FF40, symSize: 0xC }
  - { offsetInCU: 0x4478, offset: 0x60022, size: 0x8, addend: 0x0, symName: __ZN4core4char11EscapeDebug5clear17ha4dfdd4c015d4032E, symObjAddr: 0x68AC, symBinAddr: 0x10002FF40, symSize: 0xC }
  - { offsetInCU: 0x4565, offset: 0x6010F, size: 0x8, addend: 0x0, symName: __ZN4core6result13unwrap_failed17h9cc0c027018ea445E, symObjAddr: 0x9D14, symBinAddr: 0x100037A50, symSize: 0x5C }
  - { offsetInCU: 0x4634, offset: 0x601DE, size: 0x8, addend: 0x0, symName: '__ZN36_$LT$T$u20$as$u20$core..any..Any$GT$7type_id17h756a76a895e36fd9E', symObjAddr: 0x5E94, symBinAddr: 0x10002FC0C, symSize: 0x24 }
  - { offsetInCU: 0x46F1, offset: 0x6029B, size: 0x8, addend: 0x0, symName: '__ZN63_$LT$core..cell..BorrowMutError$u20$as$u20$core..fmt..Debug$GT$3fmt17h2226a63a446a6c1cE', symObjAddr: 0x63D4, symBinAddr: 0x10002FC30, symSize: 0x18 }
  - { offsetInCU: 0x470F, offset: 0x602B9, size: 0x8, addend: 0x0, symName: '__ZN63_$LT$core..cell..BorrowMutError$u20$as$u20$core..fmt..Debug$GT$3fmt17h2226a63a446a6c1cE', symObjAddr: 0x63D4, symBinAddr: 0x10002FC30, symSize: 0x18 }
  - { offsetInCU: 0x4724, offset: 0x602CE, size: 0x8, addend: 0x0, symName: '__ZN63_$LT$core..cell..BorrowMutError$u20$as$u20$core..fmt..Debug$GT$3fmt17h2226a63a446a6c1cE', symObjAddr: 0x63D4, symBinAddr: 0x10002FC30, symSize: 0x18 }
  - { offsetInCU: 0x4739, offset: 0x602E3, size: 0x8, addend: 0x0, symName: '__ZN63_$LT$core..cell..BorrowMutError$u20$as$u20$core..fmt..Debug$GT$3fmt17h2226a63a446a6c1cE', symObjAddr: 0x63D4, symBinAddr: 0x10002FC30, symSize: 0x18 }
  - { offsetInCU: 0x474D, offset: 0x602F7, size: 0x8, addend: 0x0, symName: __ZN4core4cell22panic_already_borrowed17h4a478842e08a252dE, symObjAddr: 0x6400, symBinAddr: 0x10003772C, symSize: 0x44 }
  - { offsetInCU: 0x478D, offset: 0x60337, size: 0x8, addend: 0x0, symName: __ZN4core3ffi5c_str4CStr19from_bytes_with_nul17h4d43b085811efcd7E, symObjAddr: 0x6E28, symBinAddr: 0x10002FF4C, symSize: 0xF0 }
  - { offsetInCU: 0x47AB, offset: 0x60355, size: 0x8, addend: 0x0, symName: __ZN4core3ffi5c_str4CStr19from_bytes_with_nul17h4d43b085811efcd7E, symObjAddr: 0x6E28, symBinAddr: 0x10002FF4C, symSize: 0xF0 }
  - { offsetInCU: 0x4882, offset: 0x6042C, size: 0x8, addend: 0x0, symName: __ZN4core9panicking9panic_fmt17h97d7668950891d84E, symObjAddr: 0x9864, symBinAddr: 0x1000377B8, symSize: 0x34 }
  - { offsetInCU: 0x48B0, offset: 0x6045A, size: 0x8, addend: 0x0, symName: __ZN4core9panicking18panic_nounwind_fmt17h2e0c46d74fddb096E, symObjAddr: 0x9898, symBinAddr: 0x1000377EC, symSize: 0x14 }
  - { offsetInCU: 0x48CE, offset: 0x60478, size: 0x8, addend: 0x0, symName: __ZN4core9panicking18panic_nounwind_fmt7runtime17hae5150b31feb921aE, symObjAddr: 0x98AC, symBinAddr: 0x10003020C, symSize: 0x34 }
  - { offsetInCU: 0x48FD, offset: 0x604A7, size: 0x8, addend: 0x0, symName: __ZN4core9panicking5panic17hc3063fe5d959c253E, symObjAddr: 0x98E0, symBinAddr: 0x100037800, symSize: 0x38 }
  - { offsetInCU: 0x492B, offset: 0x604D5, size: 0x8, addend: 0x0, symName: __ZN4core9panicking14panic_nounwind17hdaf73ae289dd4a7cE, symObjAddr: 0x9918, symBinAddr: 0x100037838, symSize: 0x40 }
  - { offsetInCU: 0x4959, offset: 0x60503, size: 0x8, addend: 0x0, symName: __ZN4core9panicking26panic_nounwind_nobacktrace17hd39799cab3d212d1E, symObjAddr: 0x9958, symBinAddr: 0x100037878, symSize: 0x40 }
  - { offsetInCU: 0x4987, offset: 0x60531, size: 0x8, addend: 0x0, symName: __ZN4core9panicking18panic_bounds_check17hbe1f9896b0ca244bE, symObjAddr: 0x99E0, symBinAddr: 0x1000378B8, symSize: 0x50 }
  - { offsetInCU: 0x49B5, offset: 0x6055F, size: 0x8, addend: 0x0, symName: __ZN4core9panicking19panic_cannot_unwind17h3e331df822959b55E, symObjAddr: 0x9ABC, symBinAddr: 0x100037908, symSize: 0x18 }
  - { offsetInCU: 0x49CE, offset: 0x60578, size: 0x8, addend: 0x0, symName: __ZN4core9panicking16panic_in_cleanup17h3d6ad1796802fec9E, symObjAddr: 0x9AD4, symBinAddr: 0x100037920, symSize: 0x18 }
  - { offsetInCU: 0x49E7, offset: 0x60591, size: 0x8, addend: 0x0, symName: __ZN4core9panicking19assert_failed_inner17hea354e3b93206330E, symObjAddr: 0x9BFC, symBinAddr: 0x100037938, symSize: 0x118 }
  - { offsetInCU: 0x4A4F, offset: 0x605F9, size: 0x8, addend: 0x0, symName: '__ZN70_$LT$core..panic..location..Location$u20$as$u20$core..fmt..Display$GT$3fmt17h14f2a95b6793d0c9E', symObjAddr: 0x9694, symBinAddr: 0x10003003C, symSize: 0x64 }
  - { offsetInCU: 0x4AA3, offset: 0x6064D, size: 0x8, addend: 0x0, symName: '__ZN73_$LT$core..panic..panic_info..PanicInfo$u20$as$u20$core..fmt..Display$GT$3fmt17hb45bbb1d12740d0fE', symObjAddr: 0x96F8, symBinAddr: 0x1000300A0, symSize: 0x16C }
  - { offsetInCU: 0x4C6E, offset: 0x60818, size: 0x8, addend: 0x0, symName: __ZN4core3str7pattern11StrSearcher3new17h7506bd9fb8e303a1E, symObjAddr: 0x10BB0, symBinAddr: 0x100032CB4, symSize: 0x904 }
  - { offsetInCU: 0x4F97, offset: 0x60B41, size: 0x8, addend: 0x0, symName: __ZN4core3str5count14do_count_chars17h5b72588ab822b366E, symObjAddr: 0x100BC, symBinAddr: 0x1000324A4, symSize: 0x568 }
  - { offsetInCU: 0x4FB4, offset: 0x60B5E, size: 0x8, addend: 0x0, symName: __ZN4core3str5count14do_count_chars17h5b72588ab822b366E, symObjAddr: 0x100BC, symBinAddr: 0x1000324A4, symSize: 0x568 }
  - { offsetInCU: 0x4FC8, offset: 0x60B72, size: 0x8, addend: 0x0, symName: __ZN4core3str5count14do_count_chars17h5b72588ab822b366E, symObjAddr: 0x100BC, symBinAddr: 0x1000324A4, symSize: 0x568 }
  - { offsetInCU: 0x52C5, offset: 0x60E6F, size: 0x8, addend: 0x0, symName: __ZN4core3str5count23char_count_general_case17h0412e10cf384557fE, symObjAddr: 0x10624, symBinAddr: 0x100032A0C, symSize: 0x2A8 }
  - { offsetInCU: 0x549E, offset: 0x61048, size: 0x8, addend: 0x0, symName: __ZN4core3str6traits23str_index_overflow_fail17hbb4b405ce5bdb4c3E, symObjAddr: 0x10B78, symBinAddr: 0x100037B9C, symSize: 0x38 }
  - { offsetInCU: 0x54D2, offset: 0x6107C, size: 0x8, addend: 0x0, symName: __ZN4core3str8converts9from_utf817h51137b4b454161ddE, symObjAddr: 0xFBC4, symBinAddr: 0x100032228, symSize: 0x27C }
  - { offsetInCU: 0x54EF, offset: 0x61099, size: 0x8, addend: 0x0, symName: __ZN4core3str8converts9from_utf817h51137b4b454161ddE, symObjAddr: 0xFBC4, symBinAddr: 0x100032228, symSize: 0x27C }
  - { offsetInCU: 0x5548, offset: 0x610F2, size: 0x8, addend: 0x0, symName: '__ZN60_$LT$core..str..lossy..Debug$u20$as$u20$core..fmt..Debug$GT$3fmt17h3d3fe6508e6771afE', symObjAddr: 0x114B4, symBinAddr: 0x1000335B8, symSize: 0x464 }
  - { offsetInCU: 0x590A, offset: 0x614B4, size: 0x8, addend: 0x0, symName: '__ZN87_$LT$core..str..lossy..Utf8Chunks$u20$as$u20$core..iter..traits..iterator..Iterator$GT$4next17hb89102787dd92c73E', symObjAddr: 0x11918, symBinAddr: 0x100033A1C, symSize: 0x1E8 }
  - { offsetInCU: 0x5B80, offset: 0x6172A, size: 0x8, addend: 0x0, symName: __ZN4core3str16slice_error_fail17h9600a19c69767e43E, symObjAddr: 0x11BD4, symBinAddr: 0x100037BD4, symSize: 0xC }
  - { offsetInCU: 0x5B99, offset: 0x61743, size: 0x8, addend: 0x0, symName: __ZN4core3str19slice_error_fail_rt17ha2e757175238d5e1E, symObjAddr: 0x11C18, symBinAddr: 0x100033C04, symSize: 0x3B0 }
  - { offsetInCU: 0x5E30, offset: 0x619DA, size: 0x8, addend: 0x0, symName: __ZN4core7unicode9printable5check17haac6fbc64cd833d8E, symObjAddr: 0x12AB0, symBinAddr: 0x100033FB4, symSize: 0x134 }
  - { offsetInCU: 0x5F65, offset: 0x61B0F, size: 0x8, addend: 0x0, symName: __ZN4core7unicode9printable12is_printable17h6f81b874c02ef49bE, symObjAddr: 0x12BE4, symBinAddr: 0x1000340E8, symSize: 0x114 }
  - { offsetInCU: 0x5FB3, offset: 0x61B5D, size: 0x8, addend: 0x0, symName: __ZN4core7unicode12unicode_data2cc6lookup17ha74e9a82f09cdcc4E, symObjAddr: 0x1C9E0, symBinAddr: 0x100034D58, symSize: 0x40 }
  - { offsetInCU: 0x6005, offset: 0x61BAF, size: 0x8, addend: 0x0, symName: __ZN4core7unicode12unicode_data15grapheme_extend6lookup17he6c5001ff61dd32dE, symObjAddr: 0x1CA20, symBinAddr: 0x100034D98, symSize: 0x138 }
...
